ARM GAS  C:\Users\MARKHU~1\AppData\Local\Temp\ccWIbqit.s 			page 1


   1              		.syntax unified
   2              		.cpu cortex-m3
   3              		.fpu softvfp
   4              		.eabi_attribute 20, 1
   5              		.eabi_attribute 21, 1
   6              		.eabi_attribute 23, 3
   7              		.eabi_attribute 24, 1
   8              		.eabi_attribute 25, 1
   9              		.eabi_attribute 26, 1
  10              		.eabi_attribute 30, 1
  11              		.eabi_attribute 34, 1
  12              		.eabi_attribute 18, 4
  13              		.thumb
  14              		.syntax unified
  15              		.file	"main.c"
  16              		.text
  17              	.Ltext0:
  18              		.cfi_sections	.debug_frame
  19              		.global	__aeabi_d2f
  20              		.section	.text.uart1_rx_isr,"ax",%progbits
  21              		.align	2
  22              		.global	uart1_rx_isr
  23              		.thumb
  24              		.thumb_func
  25              		.type	uart1_rx_isr, %function
  26              	uart1_rx_isr:
  27              	.LFB64:
  28              		.file 1 "main.c"
   1:main.c        **** /* ========================================
   2:main.c        ****  *
   3:main.c        ****  * Copyright YOUR COMPANY, THE YEAR
   4:main.c        ****  * All Rights Reserved
   5:main.c        ****  * UNPUBLISHED, LICENSED SOFTWARE.
   6:main.c        ****  *
   7:main.c        ****  * CONFIDENTIAL AND PROPRIETARY INFORMATION
   8:main.c        ****  * WHICH IS THE PROPERTY OF your company.
   9:main.c        ****  *
  10:main.c        ****  * ========================================
  11:main.c        **** */
  12:main.c        **** #include "project.h"
  13:main.c        **** #include <stdio.h>
  14:main.c        **** #include <stdlib.h>
  15:main.c        **** #include <string.h>
  16:main.c        **** 
  17:main.c        **** #define UART1_BUFFER_SIZE 64
  18:main.c        **** #define UART2_BUFFER_SIZE 64
  19:main.c        **** #define MESSAGE_INTERVAL_MS 1000
  20:main.c        **** 
  21:main.c        **** char uart1_rx_buffer[UART1_BUFFER_SIZE];
  22:main.c        **** char uart2_tx_buffer[UART2_BUFFER_SIZE];
  23:main.c        **** 
  24:main.c        **** char* token;
  25:main.c        **** 
  26:main.c        **** float latitude, longitude, speed;
  27:main.c        **** char ns_indicator, ew_indicator, timestamp[10];
  28:main.c        **** 
  29:main.c        **** CY_ISR(uart1_rx_isr)
ARM GAS  C:\Users\MARKHU~1\AppData\Local\Temp\ccWIbqit.s 			page 2


  30:main.c        **** {
  29              		.loc 1 30 0
  30              		.cfi_startproc
  31              		@ args = 0, pretend = 0, frame = 0
  32              		@ frame_needed = 0, uses_anonymous_args = 0
  33 0000 38B5     		push	{r3, r4, r5, lr}
  34              		.cfi_def_cfa_offset 16
  35              		.cfi_offset 3, -16
  36              		.cfi_offset 4, -12
  37              		.cfi_offset 5, -8
  38              		.cfi_offset 14, -4
  31:main.c        ****     static uint8_t uart1_rx_index = 0;
  32:main.c        ****     
  33:main.c        ****     // Read the received data and store it in the buffer
  34:main.c        ****     uart1_rx_buffer[uart1_rx_index] = GPS_UART_GetChar();
  39              		.loc 1 34 0
  40 0002 314C     		ldr	r4, .L5
  41 0004 2578     		ldrb	r5, [r4]	@ zero_extendqisi2
  42 0006 FFF7FEFF 		bl	GPS_UART_GetChar
  43              	.LVL0:
  44 000a 304A     		ldr	r2, .L5+4
  45 000c 5055     		strb	r0, [r2, r5]
  35:main.c        ****     
  36:main.c        ****     // Check if the end of message character has been received
  37:main.c        ****     if (uart1_rx_buffer[uart1_rx_index] == '\n') {
  46              		.loc 1 37 0
  47 000e 2378     		ldrb	r3, [r4]	@ zero_extendqisi2
  48 0010 D25C     		ldrb	r2, [r2, r3]	@ zero_extendqisi2
  49 0012 0A2A     		cmp	r2, #10
  50 0014 53D1     		bne	.L2
  38:main.c        ****         
  39:main.c        ****         // Null-terminate the buffer to create a C string
  40:main.c        ****         uart1_rx_buffer[uart1_rx_index+1] = '\0';
  51              		.loc 1 40 0
  52 0016 0133     		adds	r3, r3, #1
  53 0018 2C48     		ldr	r0, .L5+4
  54 001a 0022     		movs	r2, #0
  55 001c C254     		strb	r2, [r0, r3]
  41:main.c        ****         
  42:main.c        ****         // Reset the buffer index
  43:main.c        ****         uart1_rx_index = 0;
  56              		.loc 1 43 0
  57 001e 2270     		strb	r2, [r4]
  44:main.c        ****         
  45:main.c        ****         // Parse the GNRMC message
  46:main.c        ****         token = strtok(uart1_rx_buffer, ",");
  58              		.loc 1 46 0
  59 0020 2B49     		ldr	r1, .L5+8
  60 0022 FFF7FEFF 		bl	strtok
  61              	.LVL1:
  62 0026 2B4B     		ldr	r3, .L5+12
  63 0028 1860     		str	r0, [r3]
  47:main.c        ****         
  48:main.c        ****         if (strcmp(token, "$GNRMC") == 0) {
  64              		.loc 1 48 0
  65 002a 2B49     		ldr	r1, .L5+16
  66 002c FFF7FEFF 		bl	strcmp
ARM GAS  C:\Users\MARKHU~1\AppData\Local\Temp\ccWIbqit.s 			page 3


  67              	.LVL2:
  68 0030 0028     		cmp	r0, #0
  69 0032 47D1     		bne	.L1
  49:main.c        ****             token = strtok(NULL, ",");
  70              		.loc 1 49 0
  71 0034 264D     		ldr	r5, .L5+8
  72 0036 2946     		mov	r1, r5
  73 0038 FFF7FEFF 		bl	strtok
  74              	.LVL3:
  75 003c 0146     		mov	r1, r0
  76 003e 254C     		ldr	r4, .L5+12
  77 0040 2060     		str	r0, [r4]
  50:main.c        ****             strcpy(timestamp, token);
  78              		.loc 1 50 0
  79 0042 2648     		ldr	r0, .L5+20
  80 0044 FFF7FEFF 		bl	strcpy
  81              	.LVL4:
  51:main.c        ****             token = strtok(NULL, ",");
  82              		.loc 1 51 0
  83 0048 2946     		mov	r1, r5
  84 004a 0020     		movs	r0, #0
  85 004c FFF7FEFF 		bl	strtok
  86              	.LVL5:
  87 0050 2060     		str	r0, [r4]
  52:main.c        ****             if (strcmp(token, "A") == 0) {
  88              		.loc 1 52 0
  89 0052 2349     		ldr	r1, .L5+24
  90 0054 FFF7FEFF 		bl	strcmp
  91              	.LVL6:
  92 0058 0028     		cmp	r0, #0
  93 005a 33D1     		bne	.L1
  53:main.c        ****                 token = strtok(NULL, ",");
  94              		.loc 1 53 0
  95 005c 2946     		mov	r1, r5
  96 005e FFF7FEFF 		bl	strtok
  97              	.LVL7:
  98 0062 2060     		str	r0, [r4]
  54:main.c        ****                 latitude = atof(token);
  99              		.loc 1 54 0
 100 0064 FFF7FEFF 		bl	atof
 101              	.LVL8:
 102 0068 FFF7FEFF 		bl	__aeabi_d2f
 103              	.LVL9:
 104 006c 1D4B     		ldr	r3, .L5+28
 105 006e 1860     		str	r0, [r3]	@ float
  55:main.c        ****                 token = strtok(NULL, ",");
 106              		.loc 1 55 0
 107 0070 2946     		mov	r1, r5
 108 0072 0020     		movs	r0, #0
 109 0074 FFF7FEFF 		bl	strtok
 110              	.LVL10:
 111 0078 2060     		str	r0, [r4]
  56:main.c        ****                 ns_indicator = *token;
 112              		.loc 1 56 0
 113 007a 0278     		ldrb	r2, [r0]	@ zero_extendqisi2
 114 007c 1A4B     		ldr	r3, .L5+32
 115 007e 1A70     		strb	r2, [r3]
ARM GAS  C:\Users\MARKHU~1\AppData\Local\Temp\ccWIbqit.s 			page 4


  57:main.c        ****                 token = strtok(NULL, ",");
 116              		.loc 1 57 0
 117 0080 2946     		mov	r1, r5
 118 0082 0020     		movs	r0, #0
 119 0084 FFF7FEFF 		bl	strtok
 120              	.LVL11:
 121 0088 2060     		str	r0, [r4]
  58:main.c        ****                 longitude = atof(token);
 122              		.loc 1 58 0
 123 008a FFF7FEFF 		bl	atof
 124              	.LVL12:
 125 008e FFF7FEFF 		bl	__aeabi_d2f
 126              	.LVL13:
 127 0092 164B     		ldr	r3, .L5+36
 128 0094 1860     		str	r0, [r3]	@ float
  59:main.c        ****                 token = strtok(NULL, ",");
 129              		.loc 1 59 0
 130 0096 2946     		mov	r1, r5
 131 0098 0020     		movs	r0, #0
 132 009a FFF7FEFF 		bl	strtok
 133              	.LVL14:
 134 009e 2060     		str	r0, [r4]
  60:main.c        ****                 ew_indicator = *token;
 135              		.loc 1 60 0
 136 00a0 0278     		ldrb	r2, [r0]	@ zero_extendqisi2
 137 00a2 134B     		ldr	r3, .L5+40
 138 00a4 1A70     		strb	r2, [r3]
  61:main.c        ****                 token = strtok(NULL, ",");
 139              		.loc 1 61 0
 140 00a6 2946     		mov	r1, r5
 141 00a8 0020     		movs	r0, #0
 142 00aa FFF7FEFF 		bl	strtok
 143              	.LVL15:
 144 00ae 2060     		str	r0, [r4]
  62:main.c        ****                 speed = atof(token);
 145              		.loc 1 62 0
 146 00b0 FFF7FEFF 		bl	atof
 147              	.LVL16:
 148 00b4 FFF7FEFF 		bl	__aeabi_d2f
 149              	.LVL17:
 150 00b8 0E4B     		ldr	r3, .L5+44
 151 00ba 1860     		str	r0, [r3]	@ float
 152 00bc 38BD     		pop	{r3, r4, r5, pc}
 153              	.L2:
  63:main.c        ****             }
  64:main.c        ****         }
  65:main.c        ****     }
  66:main.c        ****     else {
  67:main.c        ****         uart1_rx_index++;
 154              		.loc 1 67 0
 155 00be 0133     		adds	r3, r3, #1
 156 00c0 014A     		ldr	r2, .L5
 157 00c2 1370     		strb	r3, [r2]
 158              	.L1:
 159 00c4 38BD     		pop	{r3, r4, r5, pc}
 160              	.L6:
 161 00c6 00BF     		.align	2
ARM GAS  C:\Users\MARKHU~1\AppData\Local\Temp\ccWIbqit.s 			page 5


 162              	.L5:
 163 00c8 00000000 		.word	.LANCHOR0
 164 00cc 00000000 		.word	uart1_rx_buffer
 165 00d0 00000000 		.word	.LC0
 166 00d4 00000000 		.word	token
 167 00d8 04000000 		.word	.LC1
 168 00dc 00000000 		.word	timestamp
 169 00e0 0C000000 		.word	.LC2
 170 00e4 00000000 		.word	latitude
 171 00e8 00000000 		.word	ns_indicator
 172 00ec 00000000 		.word	longitude
 173 00f0 00000000 		.word	ew_indicator
 174 00f4 00000000 		.word	speed
 175              		.cfi_endproc
 176              	.LFE64:
 177              		.size	uart1_rx_isr, .-uart1_rx_isr
 178              		.global	__aeabi_f2d
 179              		.section	.text.main,"ax",%progbits
 180              		.align	2
 181              		.global	main
 182              		.thumb
 183              		.thumb_func
 184              		.type	main, %function
 185              	main:
 186              	.LFB65:
  68:main.c        ****     }
  69:main.c        **** }
  70:main.c        **** 
  71:main.c        **** int main(void)
  72:main.c        **** {
 187              		.loc 1 72 0
 188              		.cfi_startproc
 189              		@ Volatile: function does not return.
 190              		@ args = 0, pretend = 0, frame = 0
 191              		@ frame_needed = 0, uses_anonymous_args = 0
 192 0000 80B5     		push	{r7, lr}
 193              		.cfi_def_cfa_offset 8
 194              		.cfi_offset 7, -8
 195              		.cfi_offset 14, -4
 196 0002 8AB0     		sub	sp, sp, #40
 197              		.cfi_def_cfa_offset 48
  73:main.c        ****     
  74:main.c        ****     // Enable global interrupts
  75:main.c        ****     CyGlobalIntEnable;
 198              		.loc 1 75 0
 199              		.syntax unified
 200              	@ 75 "main.c" 1
 201 0004 62B6     		CPSIE   i
 202              	@ 0 "" 2
  76:main.c        ****     
  77:main.c        ****     // Start the message timer
  78:main.c        ****     CySysTickStart();
 203              		.loc 1 78 0
 204              		.thumb
 205              		.syntax unified
 206 0006 FFF7FEFF 		bl	CySysTickStart
 207              	.LVL18:
ARM GAS  C:\Users\MARKHU~1\AppData\Local\Temp\ccWIbqit.s 			page 6


  79:main.c        **** 
  80:main.c        ****     PW_GPS_Write(1);
 208              		.loc 1 80 0
 209 000a 0120     		movs	r0, #1
 210 000c FFF7FEFF 		bl	PW_GPS_Write
 211              	.LVL19:
  81:main.c        ****     GPS_UART_Start(); // Initialize UART1
 212              		.loc 1 81 0
 213 0010 FFF7FEFF 		bl	GPS_UART_Start
 214              	.LVL20:
  82:main.c        ****     OUTPUT_UART_Start(); // Initialize UART2
 215              		.loc 1 82 0
 216 0014 FFF7FEFF 		bl	OUTPUT_UART_Start
 217              	.LVL21:
  83:main.c        **** 
  84:main.c        ****     // Enable the UART1 RX interrupt
  85:main.c        ****     GPS_UART_RX_ISR_StartEx(uart1_rx_isr);
 218              		.loc 1 85 0
 219 0018 1F48     		ldr	r0, .L11
 220 001a FFF7FEFF 		bl	GPS_UART_RX_ISR_StartEx
 221              	.LVL22:
  86:main.c        ****     
  87:main.c        ****     // Send initial message
  88:main.c        ****     OUTPUT_UART_PutString("Initializing...\r\n");
 222              		.loc 1 88 0
 223 001e 1F48     		ldr	r0, .L11+4
 224 0020 FFF7FEFF 		bl	OUTPUT_UART_PutString
 225              	.LVL23:
  89:main.c        ****     OUTPUT_UART_PutString("Getting GPS Data...\r\n");
 226              		.loc 1 89 0
 227 0024 1E48     		ldr	r0, .L11+8
 228 0026 FFF7FEFF 		bl	OUTPUT_UART_PutString
 229              	.LVL24:
  90:main.c        ****     GPS_UART_PutString("$PMTK314,0,1,0,1,0,0,0,0,0,0,0,0,0,0,0,0,0,0,0*28\r\n");
 230              		.loc 1 90 0
 231 002a 1E48     		ldr	r0, .L11+12
 232 002c FFF7FEFF 		bl	GPS_UART_PutString
 233              	.LVL25:
  91:main.c        ****     OUTPUT_UART_PutString("GPS data:\r\n");
 234              		.loc 1 91 0
 235 0030 1D48     		ldr	r0, .L11+16
 236 0032 FFF7FEFF 		bl	OUTPUT_UART_PutString
 237              	.LVL26:
 238              	.L8:
  92:main.c        **** 
  93:main.c        ****     while(1)
  94:main.c        ****     {
  95:main.c        ****         // Check if it's time to send a message
  96:main.c        ****         if (CySysTickGetValue() % (MESSAGE_INTERVAL_MS * 1000) == 0) {
 239              		.loc 1 96 0
 240 0036 FFF7FEFF 		bl	CySysTickGetValue
 241              	.LVL27:
 242 003a 1C4B     		ldr	r3, .L11+20
 243 003c A3FB0023 		umull	r2, r3, r3, r0
 244 0040 9B0C     		lsrs	r3, r3, #18
 245 0042 1B4A     		ldr	r2, .L11+24
 246 0044 02FB1303 		mls	r3, r2, r3, r0
ARM GAS  C:\Users\MARKHU~1\AppData\Local\Temp\ccWIbqit.s 			page 7


 247 0048 002B     		cmp	r3, #0
 248 004a F4D1     		bne	.L8
  97:main.c        ****             
  98:main.c        ****             // Format the message
  99:main.c        ****             sprintf(uart2_tx_buffer, "LAT: %f %c, LON: %f %c, SPD: %f, TIME: %s \r\n", latitude, ns
 249              		.loc 1 99 0
 250 004c 194B     		ldr	r3, .L11+28
 251 004e 1868     		ldr	r0, [r3]	@ float
 252 0050 FFF7FEFF 		bl	__aeabi_f2d
 253              	.LVL28:
 254 0054 0646     		mov	r6, r0
 255 0056 0F46     		mov	r7, r1
 256 0058 174C     		ldr	r4, .L11+32
 257 005a 184B     		ldr	r3, .L11+36
 258 005c 0893     		str	r3, [sp, #32]
 259 005e 184B     		ldr	r3, .L11+40
 260 0060 1868     		ldr	r0, [r3]	@ float
 261 0062 FFF7FEFF 		bl	__aeabi_f2d
 262              	.LVL29:
 263 0066 CDE90601 		strd	r0, [sp, #24]
 264 006a 164B     		ldr	r3, .L11+44
 265 006c 1B78     		ldrb	r3, [r3]	@ zero_extendqisi2
 266 006e 0493     		str	r3, [sp, #16]
 267 0070 154B     		ldr	r3, .L11+48
 268 0072 1868     		ldr	r0, [r3]	@ float
 269 0074 FFF7FEFF 		bl	__aeabi_f2d
 270              	.LVL30:
 271 0078 CDE90201 		strd	r0, [sp, #8]
 272 007c 134B     		ldr	r3, .L11+52
 273 007e 1B78     		ldrb	r3, [r3]	@ zero_extendqisi2
 274 0080 0093     		str	r3, [sp]
 275 0082 3246     		mov	r2, r6
 276 0084 3B46     		mov	r3, r7
 277 0086 1249     		ldr	r1, .L11+56
 278 0088 2046     		mov	r0, r4
 279 008a FFF7FEFF 		bl	sprintf
 280              	.LVL31:
 100:main.c        ****             
 101:main.c        ****             // Send the message via UART2
 102:main.c        ****             OUTPUT_UART_PutString(uart2_tx_buffer);
 281              		.loc 1 102 0
 282 008e 2046     		mov	r0, r4
 283 0090 FFF7FEFF 		bl	OUTPUT_UART_PutString
 284              	.LVL32:
 285 0094 CFE7     		b	.L8
 286              	.L12:
 287 0096 00BF     		.align	2
 288              	.L11:
 289 0098 00000000 		.word	uart1_rx_isr
 290 009c 10000000 		.word	.LC3
 291 00a0 24000000 		.word	.LC4
 292 00a4 3C000000 		.word	.LC5
 293 00a8 70000000 		.word	.LC6
 294 00ac 83DE1B43 		.word	1125899907
 295 00b0 40420F00 		.word	1000000
 296 00b4 00000000 		.word	latitude
 297 00b8 00000000 		.word	uart2_tx_buffer
ARM GAS  C:\Users\MARKHU~1\AppData\Local\Temp\ccWIbqit.s 			page 8


 298 00bc 00000000 		.word	timestamp
 299 00c0 00000000 		.word	speed
 300 00c4 00000000 		.word	ew_indicator
 301 00c8 00000000 		.word	longitude
 302 00cc 00000000 		.word	ns_indicator
 303 00d0 7C000000 		.word	.LC7
 304              		.cfi_endproc
 305              	.LFE65:
 306              		.size	main, .-main
 307              		.comm	timestamp,10,4
 308              		.comm	ew_indicator,1,1
 309              		.comm	ns_indicator,1,1
 310              		.comm	speed,4,4
 311              		.comm	longitude,4,4
 312              		.comm	latitude,4,4
 313              		.comm	token,4,4
 314              		.comm	uart2_tx_buffer,64,4
 315              		.comm	uart1_rx_buffer,64,4
 316              		.section	.rodata.str1.4,"aMS",%progbits,1
 317              		.align	2
 318              	.LC0:
 319 0000 2C00     		.ascii	",\000"
 320 0002 0000     		.space	2
 321              	.LC1:
 322 0004 24474E52 		.ascii	"$GNRMC\000"
 322      4D4300
 323 000b 00       		.space	1
 324              	.LC2:
 325 000c 4100     		.ascii	"A\000"
 326 000e 0000     		.space	2
 327              	.LC3:
 328 0010 496E6974 		.ascii	"Initializing...\015\012\000"
 328      69616C69 
 328      7A696E67 
 328      2E2E2E0D 
 328      0A00
 329 0022 0000     		.space	2
 330              	.LC4:
 331 0024 47657474 		.ascii	"Getting GPS Data...\015\012\000"
 331      696E6720 
 331      47505320 
 331      44617461 
 331      2E2E2E0D 
 332 003a 0000     		.space	2
 333              	.LC5:
 334 003c 24504D54 		.ascii	"$PMTK314,0,1,0,1,0,0,0,0,0,0,0,0,0,0,0,0,0,0,0*28\015"
 334      4B333134 
 334      2C302C31 
 334      2C302C31 
 334      2C302C30 
 335 006e 0A00     		.ascii	"\012\000"
 336              	.LC6:
 337 0070 47505320 		.ascii	"GPS data:\015\012\000"
 337      64617461 
 337      3A0D0A00 
 338              	.LC7:
 339 007c 4C41543A 		.ascii	"LAT: %f %c, LON: %f %c, SPD: %f, TIME: %s \015\012\000"
ARM GAS  C:\Users\MARKHU~1\AppData\Local\Temp\ccWIbqit.s 			page 9


 339      20256620 
 339      25632C20 
 339      4C4F4E3A 
 339      20256620 
 340              		.bss
 341              		.set	.LANCHOR0,. + 0
 342              		.type	uart1_rx_index.6926, %object
 343              		.size	uart1_rx_index.6926, 1
 344              	uart1_rx_index.6926:
 345 0000 00       		.space	1
 346              		.text
 347              	.Letext0:
 348              		.file 2 "c:\\program files (x86)\\cypress\\psoc creator\\4.4\\psoc creator\\import\\gnu\\arm\\5.4.
 349              		.file 3 "c:\\program files (x86)\\cypress\\psoc creator\\4.4\\psoc creator\\import\\gnu\\arm\\5.4.
 350              		.file 4 "Generated_Source\\PSoC5/core_cm3.h"
 351              		.file 5 "Generated_Source\\PSoC5/GPS_UART.h"
 352              		.file 6 "c:\\program files (x86)\\cypress\\psoc creator\\4.4\\psoc creator\\import\\gnu\\arm\\5.4.
 353              		.file 7 "c:\\program files (x86)\\cypress\\psoc creator\\4.4\\psoc creator\\import\\gnu\\arm\\5.4.
 354              		.file 8 "Generated_Source\\PSoC5/CyLib.h"
 355              		.file 9 "Generated_Source\\PSoC5/PW_GPS.h"
 356              		.file 10 "Generated_Source\\PSoC5/OUTPUT_UART.h"
 357              		.file 11 "Generated_Source\\PSoC5/GPS_UART_RX_ISR.h"
 358              		.file 12 "c:\\program files (x86)\\cypress\\psoc creator\\4.4\\psoc creator\\import\\gnu\\arm\\5.4