ARM GAS  C:\Users\MARKHU~1\AppData\Local\Temp\ccbVr9K6.s 			page 1


   1              		.syntax unified
   2              		.cpu cortex-m3
   3              		.fpu softvfp
   4              		.eabi_attribute 20, 1
   5              		.eabi_attribute 21, 1
   6              		.eabi_attribute 23, 3
   7              		.eabi_attribute 24, 1
   8              		.eabi_attribute 25, 1
   9              		.eabi_attribute 26, 1
  10              		.eabi_attribute 30, 1
  11              		.eabi_attribute 34, 1
  12              		.eabi_attribute 18, 4
  13              		.thumb
  14              		.syntax unified
  15              		.file	"main.c"
  16              		.text
  17              	.Ltext0:
  18              		.cfi_sections	.debug_frame
  19              		.global	__aeabi_ddiv
  20              		.global	__aeabi_d2iz
  21              		.global	__aeabi_i2d
  22              		.global	__aeabi_dmul
  23              		.global	__aeabi_dsub
  24              		.global	__aeabi_dadd
  25              		.section	.text.NEO_GPS_Location,"ax",%progbits
  26              		.align	2
  27              		.thumb
  28              		.thumb_func
  29              		.type	NEO_GPS_Location, %function
  30              	NEO_GPS_Location:
  31              	.LFB66:
  32              		.file 1 "main.c"
   1:main.c        **** /* ========================================
   2:main.c        ****  *
   3:main.c        ****  * Copyright YOUR COMPANY, THE YEAR
   4:main.c        ****  * All Rights Reserved
   5:main.c        ****  * UNPUBLISHED, LICENSED SOFTWARE.
   6:main.c        ****  *
   7:main.c        ****  * CONFIDENTIAL AND PROPRIETARY INFORMATION
   8:main.c        ****  * WHICH IS THE PROPERTY OF your company.
   9:main.c        ****  *
  10:main.c        ****  * ========================================
  11:main.c        **** */
  12:main.c        **** #include "project.h"
  13:main.c        **** #include <stdio.h>
  14:main.c        **** #include <stdlib.h>
  15:main.c        **** #include <string.h>
  16:main.c        **** #include <math.h>
  17:main.c        **** //#include <PutHex.h>
  18:main.c        **** #include <float.h>
  19:main.c        **** //#include <OneWire.h>
  20:main.c        **** #include <stdbool.h>
  21:main.c        **** 
  22:main.c        **** #define BUFFER_SIZE 128
  23:main.c        **** #define GPRMC_HEADER                "$GPRMC"
  24:main.c        **** #define GNRMC_HEADER                "$GNRMC"
  25:main.c        **** #define GPS_MODULE_ACTIVE           0x41
ARM GAS  C:\Users\MARKHU~1\AppData\Local\Temp\ccbVr9K6.s 			page 2


  26:main.c        **** 
  27:main.c        **** #define GPS_UART_RX_BUFFER_SIZE 256
  28:main.c        **** 
  29:main.c        **** #define Min_To_Degree  0.01666666667
  30:main.c        **** #define Sec_To_Degree	 0.000277777778
  31:main.c        **** 
  32:main.c        **** uint8_t GPS_UART_RX_Buffer[GPS_UART_RX_BUFFER_SIZE];
  33:main.c        **** uint32_t GPS_UART_RX_Wr_Index = 0;
  34:main.c        **** uint32_t GPS_UART_RX_Rd_Index = 0;
  35:main.c        **** uint32_t GPS_UART_RX_Full = 0;
  36:main.c        **** 
  37:main.c        **** 
  38:main.c        **** /*char gps_buffer[BUFFER_SIZE],
  39:main.c        ****      UBLOX_9600[]              = { 0xb5, 0x62, 0x06, 0x00, 0x14, 0x00, 0x01, 0x00, 0x00, 0x00, 0xd0
  40:main.c        ****      DISABLE_UBLOX_GPGSV[]           = { 0xb5, 0x62, 0x06, 0x01, 0x03, 0x00, 0xf0, 0x03, 0x00, 0xfd
  41:main.c        ****      DISABLE_UBLOX_GNGSA[]           = { 0xb5, 0x62, 0x06, 0x01, 0x03, 0x00, 0xf0, 0x02, 0x00, 0xfc
  42:main.c        ****      DISABLE_UBLOX_GNGLL[]           = { 0xb5, 0x62, 0x06, 0x01, 0x03, 0x00, 0xf0, 0x01, 0x00, 0xfb
  43:main.c        ****      DISABLE_UBLOX_GNVTG[]           = { 0xb5, 0x62, 0x06, 0x01, 0x03, 0x00, 0xf0, 0x05, 0x00, 0xff
  44:main.c        ****     ;
  45:main.c        **** uint8_t gps_buffer_index = 0;
  46:main.c        **** int flag_jamming = 0,
  47:main.c        ****     count_data_jamming = 0
  48:main.c        **** ;*/
  49:main.c        **** 
  50:main.c        **** void NewLine (void);
  51:main.c        **** void DTC_DEBUG( char * debugstr );
  52:main.c        **** 
  53:main.c        **** int DTC_DEBUG_TIMER = 0;
  54:main.c        **** 
  55:main.c        **** /*const char config_commands[] = 
  56:main.c        ****     "$PUBX,40,GLL,0,0,0,0*5C\r\n" // disable GLL output
  57:main.c        ****     "$PUBX,40,GGA,0,1,0,0*5A\r\n" // enable GGA output
  58:main.c        ****     "$PUBX,40,VTG,0,1,0,0*5E\r\n" // enable VTG output
  59:main.c        ****     "$PUBX,40,GSA,0,1,0,0*4E\r\n" // enable GSA output
  60:main.c        ****     "$PUBX,40,RMC,0,1,0,0*47\r\n" // enable RMC output
  61:main.c        ****     "$PUBX,41,1,0007,0003,9600,0*25\r\n" // set the uart to the binary packet protocol 9600
  62:main.c        **** ;*/
  63:main.c        **** 
  64:main.c        **** /*char ublock_config1[] =
  65:main.c        ****     "$PUBX,41,1,0007,0003,9600,0*5C\r\n"
  66:main.c        ****     "$PUBX,40,GLL,0,0,0,0*5C\r\n";*/
  67:main.c        **** 
  68:main.c        **** typedef struct GPS_GPSData
  69:main.c        **** {
  70:main.c        ****     double time;
  71:main.c        **** 	double latitude;
  72:main.c        **** 	double longitude;
  73:main.c        **** 	double Knots;
  74:main.c        **** 	double Date;
  75:main.c        **** 	char N_OR_S;
  76:main.c        **** 	char E_OR_W;
  77:main.c        **** 	char Data[750];
  78:main.c        **** 	char buffer[100];
  79:main.c        **** 	char location[100];
  80:main.c        **** 
  81:main.c        **** }GPS_GPSData;
  82:main.c        **** 
ARM GAS  C:\Users\MARKHU~1\AppData\Local\Temp\ccbVr9K6.s 			page 3


  83:main.c        **** GPS_GPSData GPS_Data;
  84:main.c        **** 
  85:main.c        **** void Get_GpsData(GPS_GPSData* GpsData);
  86:main.c        **** static void NEO_GPS_Location(GPS_GPSData* GpsData);
  87:main.c        **** 
  88:main.c        **** int main(void)
  89:main.c        **** {
  90:main.c        ****     CyGlobalIntEnable; /* Enable global interrupts. */
  91:main.c        ****     
  92:main.c        ****     uint8_t c;
  93:main.c        ****     
  94:main.c        ****     UART_Start();
  95:main.c        ****     GPS_Start();
  96:main.c        ****     /* Place your initialization/startup code here (e.g. MyInst_Start()) */
  97:main.c        ****     DTC_DEBUG_TIMER = 1;
  98:main.c        ****     PW_GPS_Write(1);
  99:main.c        ****         
 100:main.c        ****     UART_PutString("Initializing \r\n");
 101:main.c        ****     CyDelay(500);
 102:main.c        ****     UART_PutString("Start Serial to UART!! \r\n"); //Print String to Serial
 103:main.c        ****     UART_PutString("PSoC 5LP UART Communicate Test \r\n");
 104:main.c        ****     UART_PutString(
 105:main.c        ****         "Hello World! \r\n"
 106:main.c        ****         "1&s is send ublox command \r\n"
 107:main.c        ****         "3 is DISABLE_TELIT_GSV_GSA_GLL_VTG\r\n"
 108:main.c        ****         "4 is ENABLE_TELIT_GSV_GSA_GLL_VTG \r\n"
 109:main.c        ****         "5 is UART First Method\r\n"
 110:main.c        ****         "6 is UART Second Method\r\n"
 111:main.c        ****     );
 112:main.c        ****     
 113:main.c        ****     UART_PutChar('>');
 114:main.c        ****     //UART_PutString("Sending UBlock Config Command \r\n");
 115:main.c        ****     //GPS_PutString("$PUBX,41,1,0007,0003,9600,0*5C\r\n"); //set the uart to the binary packet prot
 116:main.c        ****     //GPS_PutString("$PUBX,40,GLL,0,0,0,0*5C\r\n"); // request GPS Fix Data
 117:main.c        ****     //UART_PutChar('>');
 118:main.c        ****     //GPS_PutString(config_commands); //Set parameter
 119:main.c        ****     //GPS_PutString("$PUBX,41,1,0007,0003,9600,0*16"); //set the uart to the binary packet protocol
 120:main.c        ****     //GPS_PutString("\r\n");
 121:main.c        ****     //GPS_PutString("$PMTK253,1,9600*08\r\n"); // set the uart to the binary packet protocol 9600 f
 122:main.c        ****     
 123:main.c        ****     for(;;)
 124:main.c        ****     {
 125:main.c        ****         c = UART_GetChar();
 126:main.c        ****         if(c) {
 127:main.c        ****             UART_PutChar(c);
 128:main.c        ****             GPS_PutChar(c);
 129:main.c        ****         } //Echo
 130:main.c        ****         
 131:main.c        ****         /*switch(c){
 132:main.c        ****         case '1':
 133:main.c        ****             UART_PutString("Sending GPS Config GLL 0 ...\r\n"); //UBLOX
 134:main.c        ****             GPS_PutString("$PUBX,41,1,0007,0003,9600,0*5C\r\n"); //set the uart to the binary packe
 135:main.c        ****             GPS_PutString("$PUBX,40,GLL,0,0,0,0*5C\r\n"); // request GPS Fix Data
 136:main.c        ****             break;
 137:main.c        ****         case '2':
 138:main.c        ****             UART_PutString("Sending GPS Config GLL 1 ...\r\n"); //UBLOX
 139:main.c        ****             GPS_PutString("$PUBX,41,1,0007,0003,9600,0*5C\r\n"); //set the uart to the binary packe
ARM GAS  C:\Users\MARKHU~1\AppData\Local\Temp\ccbVr9K6.s 			page 4


 140:main.c        ****             GPS_PutString("$PUBX,40,GLL,1,1,0,0*5C\r\n"); // request GPS Fix Data
 141:main.c        ****             break;
 142:main.c        ****         case '3':
 143:main.c        ****             //$PMTK314,0,1,0,1,0,0,0,0,0,0,0,0,0,0,0,0,0,0,0*28\r\n
 144:main.c        ****             UART_PutString("$PMTK314,0,1,0,1,0,0,0,0,0,0,0,0,0,0,0,0,0,0,0*28\r\n");
 145:main.c        ****             UART_PutString("DISABLE_TELIT_GSV_GSA_GLL_VTG");
 146:main.c        ****             GPS_PutString("$PMTK314,0,1,0,1,0,0,0,0,0,0,0,0,0,0,0,0,0,0,0*28\r\n"); //DISABLE_TELIT
 147:main.c        ****             break;
 148:main.c        ****         case '4':
 149:main.c        ****             //$PMTK314,0,1,0,1,0,0,0,0,0,0,0,0,0,0,0,0,0,0,0*28\r\n
 150:main.c        ****             UART_PutString("$PMTK314,1,1,1,1,1,1,0,0,0,0,0,0,0,0,0,0,0,0,0*28\r\n");
 151:main.c        ****             UART_PutString("ENABLE_TELIT_GSV_GSA_GLL_VTG");
 152:main.c        ****             GPS_PutString("$PMTK314,1,1,1,1,1,1,0,0,0,0,0,0,0,0,0,0,0,0,0*28\r\n"); //ENABLE_TELIT_
 153:main.c        ****             break;
 154:main.c        ****         }*/
 155:main.c        ****         
 156:main.c        ****         if (c == '1')
 157:main.c        ****         {
 158:main.c        ****             UART_PutString("Sending GPS Config GLL 0 ...\r\n"); //UBLOX
 159:main.c        ****             GPS_PutString("$PUBX,41,1,0007,0003,9600,0*5C\r\n"); //set the uart to the binary packe
 160:main.c        ****             GPS_PutString("$PUBX,40,GLL,0,0,0,0*5C\r\n"); // request GPS Fix Data
 161:main.c        ****         }
 162:main.c        ****         if(c == '2')
 163:main.c        ****         {
 164:main.c        ****             UART_PutString("Sending GPS Config GLL 1 ...\r\n"); //UBLOX
 165:main.c        ****             GPS_PutString("$PUBX,41,1,0007,0003,9600,0*5C\r\n"); //set the uart to the binary packe
 166:main.c        ****             GPS_PutString("$PUBX,40,GLL,1,1,0,0*5C\r\n"); // request GPS Fix Data
 167:main.c        ****         }
 168:main.c        ****         if(c == '3')
 169:main.c        ****         {
 170:main.c        ****            //$PMTK314,0,1,0,1,0,0,0,0,0,0,0,0,0,0,0,0,0,0,0*28\r\n
 171:main.c        ****             UART_PutString("$PMTK314,0,1,0,1,0,0,0,0,0,0,0,0,0,0,0,0,0,0,0*28\r\n");
 172:main.c        ****             UART_PutString("DISABLE_TELIT_GSV_GSA_GLL_VTG");
 173:main.c        ****             GPS_PutString("$PMTK314,0,1,0,1,0,0,0,0,0,0,0,0,0,0,0,0,0,0,0*28\r\n"); //DISABLE_TELIT
 174:main.c        ****         }
 175:main.c        ****         if(c == '4')
 176:main.c        ****         {
 177:main.c        ****             //$PMTK314,0,1,0,1,0,0,0,0,0,0,0,0,0,0,0,0,0,0,0*28\r\n
 178:main.c        ****             UART_PutString("$PMTK314,1,1,1,1,1,5,0,0,0,0,0,0,0,0,0,0,0,0,0*28\r\n");
 179:main.c        ****             UART_PutString("ENABLE_TELIT_GSV_GSA_GLL_VTG\r\n");
 180:main.c        ****             GPS_PutString("$PMTK314,1,1,1,1,1,5,0,0,0,0,0,0,0,0,0,0,0,0,0*28\r\n"); //ENABLE_TELIT_
 181:main.c        ****         }
 182:main.c        ****         //UART_PutString("Second Method\r\n");
 183:main.c        ****         if (GPS_GetRxBufferSize() > 0) // First Method
 184:main.c        ****         {
 185:main.c        ****             while (GPS_GetRxBufferSize() > 0 && !GPS_UART_RX_Full)
 186:main.c        ****             {
 187:main.c        ****                 GPS_UART_RX_Buffer[GPS_UART_RX_Wr_Index] = GPS_GetChar();
 188:main.c        ****                 GPS_UART_RX_Wr_Index++;
 189:main.c        ****                 if (GPS_UART_RX_Wr_Index == GPS_UART_RX_BUFFER_SIZE)
 190:main.c        ****                 {
 191:main.c        ****                     GPS_UART_RX_Wr_Index = 0;
 192:main.c        ****                     GPS_UART_RX_Full = 1;
 193:main.c        ****                 }
 194:main.c        ****             }
 195:main.c        ****         }
 196:main.c        ****         
ARM GAS  C:\Users\MARKHU~1\AppData\Local\Temp\ccbVr9K6.s 			page 5


 197:main.c        ****         if (UART_GetTxBufferSize() == 0 && GPS_UART_RX_Rd_Index != GPS_UART_RX_Wr_Index)
 198:main.c        ****         {
 199:main.c        ****             UART_PutChar(GPS_UART_RX_Buffer[GPS_UART_RX_Rd_Index]);
 200:main.c        ****             GPS_UART_RX_Rd_Index++;
 201:main.c        ****             if (GPS_UART_RX_Rd_Index == GPS_UART_RX_BUFFER_SIZE)
 202:main.c        ****             {
 203:main.c        ****                 GPS_UART_RX_Rd_Index = 0;
 204:main.c        ****                 GPS_UART_RX_Full = 0;
 205:main.c        ****             }
 206:main.c        ****         }
 207:main.c        ****         
 208:main.c        ****         if (c == '6')
 209:main.c        ****         {
 210:main.c        ****             UART_PutString("Second Method\r\n");
 211:main.c        ****             Get_GpsData(&GPS_Data);
 212:main.c        ****         }
 213:main.c        ****          /*Place your application code here. */
 214:main.c        ****         /*while( 0 != GPS_GetRxBufferSize() ) {
 215:main.c        ****             char buff = GPS_GetChar();
 216:main.c        ****             UART_PutChar(buff);
 217:main.c        ****             //DTC_DEBUG(buff);
 218:main.c        ****             //UART_PutString(buff);
 219:main.c        ****             //c = UART_GetChar();
 220:main.c        ****             //UART_PutChar(c);
 221:main.c        ****             if(buff == 0xB5) flag_jamming = 1;
 222:main.c        ****             if(flag_jamming == 1)
 223:main.c        ****             {
 224:main.c        ****                 UART_PutString("FUCK IT JAMMING DAM!!\r\n");
 225:main.c        ****                 flag_jamming = 0;
 226:main.c        ****                 break;
 227:main.c        ****             }
 228:main.c        ****         }*/
 229:main.c        ****         //if(flag_jamming == 0) UART_PutString("Not JAMMING\r\n");
 230:main.c        ****         /*if(c != NULL)
 231:main.c        ****         {
 232:main.c        ****             c = UART_GetChar(); //Get character from terminal
 233:main.c        ****             UART_PutChar(c); //Echo to terminal 
 234:main.c        ****             GPS_PutChar(c); //Send to GPS
 235:main.c        ****         }*/
 236:main.c        ****         
 237:main.c        ****         //char buff = GPS_GetChar();
 238:main.c        ****         //UART_PutChar(buff); //Print NULL
 239:main.c        ****         
 240:main.c        ****     }
 241:main.c        ****     return 0;
 242:main.c        **** }
 243:main.c        **** 
 244:main.c        **** void Get_GpsData(GPS_GPSData* GpsData)
 245:main.c        **** {
 246:main.c        ****     char *P;
 247:main.c        **** 	int n;
 248:main.c        ****     if (GPS_GetRxBufferSize() > 0)
 249:main.c        ****         {
 250:main.c        ****             while (GPS_GetRxBufferSize() > 0 && !GPS_UART_RX_Full)
 251:main.c        ****             {
 252:main.c        ****                 GpsData->Data[GPS_UART_RX_Wr_Index] = GPS_GetChar();
 253:main.c        ****                 GPS_UART_RX_Wr_Index++;
ARM GAS  C:\Users\MARKHU~1\AppData\Local\Temp\ccbVr9K6.s 			page 6


 254:main.c        ****                 if (GPS_UART_RX_Wr_Index == GPS_UART_RX_BUFFER_SIZE)
 255:main.c        ****                 {
 256:main.c        ****                     GPS_UART_RX_Wr_Index = 0;
 257:main.c        ****                     GPS_UART_RX_Full = 1;
 258:main.c        ****                 }
 259:main.c        ****             }
 260:main.c        ****         }
 261:main.c        ****     P=strstr(GpsData->Data,"&GPRMC");
 262:main.c        ****     if(*P=='G')
 263:main.c        **** 			{
 264:main.c        **** 				n=0;
 265:main.c        **** 				while(*(P+n)!='\n'){
 266:main.c        **** 
 267:main.c        **** 					GpsData->location[n]=*(P+n);
 268:main.c        **** 					n++;}
 269:main.c        **** 					sprintf(GpsData->buffer,"%s\r\n\n",GpsData->location);
 270:main.c        **** 					sscanf(GpsData->buffer,"GPRMC,%lf,A,%lf,%c,%lf,%c,%lf,,%lf,,,A*64",&GpsData->time,&GpsData->la
 271:main.c        **** 					NEO_GPS_Location(GpsData);
 272:main.c        **** 			}
 273:main.c        **** }
 274:main.c        **** 
 275:main.c        **** static void NEO_GPS_Location(GPS_GPSData* GpsData)
 276:main.c        **** {
  33              		.loc 1 276 0
  34              		.cfi_startproc
  35              		@ args = 0, pretend = 0, frame = 8
  36              		@ frame_needed = 0, uses_anonymous_args = 0
  37              	.LVL0:
  38 0000 2DE9F047 		push	{r4, r5, r6, r7, r8, r9, r10, lr}
  39              		.cfi_def_cfa_offset 32
  40              		.cfi_offset 4, -32
  41              		.cfi_offset 5, -28
  42              		.cfi_offset 6, -24
  43              		.cfi_offset 7, -20
  44              		.cfi_offset 8, -16
  45              		.cfi_offset 9, -12
  46              		.cfi_offset 10, -8
  47              		.cfi_offset 14, -4
  48 0004 82B0     		sub	sp, sp, #8
  49              		.cfi_def_cfa_offset 40
  50              	.LVL1:
 277:main.c        **** 	double Deg_Val=0.0,Min_Val=0.0,Sec_Val=0.0,lon=0.0,lat=0.0;
 278:main.c        **** 
 279:main.c        **** 	lon=GpsData->longitude;
  51              		.loc 1 279 0
  52 0006 D0E90467 		ldrd	r6, [r0, #16]
  53              	.LVL2:
 280:main.c        **** 	lat=GpsData->latitude;
  54              		.loc 1 280 0
  55 000a D0E90245 		ldrd	r4, [r0, #8]
  56              	.LVL3:
 281:main.c        **** 	if(GpsData->E_OR_W=='E' && GpsData->N_OR_S=='S')
  57              		.loc 1 281 0
  58 000e 028D     		ldrh	r2, [r0, #40]
  59 0010 44F25353 		movw	r3, #17747
  60 0014 9A42     		cmp	r2, r3
  61 0016 40F09480 		bne	.L1
ARM GAS  C:\Users\MARKHU~1\AppData\Local\Temp\ccbVr9K6.s 			page 7


  62 001a 8246     		mov	r10, r0
 282:main.c        **** 	{
 283:main.c        **** 		Deg_Val=(int)(lon/100);
  63              		.loc 1 283 0
  64 001c 0022     		movs	r2, #0
  65 001e 4E4B     		ldr	r3, .L4+16
  66 0020 3046     		mov	r0, r6
  67              	.LVL4:
  68 0022 3946     		mov	r1, r7
  69 0024 FFF7FEFF 		bl	__aeabi_ddiv
  70              	.LVL5:
  71 0028 FFF7FEFF 		bl	__aeabi_d2iz
  72              	.LVL6:
  73 002c FFF7FEFF 		bl	__aeabi_i2d
  74              	.LVL7:
  75 0030 CDE90001 		strd	r0, [sp]
  76              	.LVL8:
 284:main.c        **** 		Min_Val=(int)(lon-(Deg_Val*100));
  77              		.loc 1 284 0
  78 0034 0022     		movs	r2, #0
  79 0036 484B     		ldr	r3, .L4+16
  80 0038 FFF7FEFF 		bl	__aeabi_dmul
  81              	.LVL9:
  82 003c 0246     		mov	r2, r0
  83 003e 0B46     		mov	r3, r1
  84 0040 3046     		mov	r0, r6
  85 0042 3946     		mov	r1, r7
  86 0044 FFF7FEFF 		bl	__aeabi_dsub
  87              	.LVL10:
  88 0048 8046     		mov	r8, r0
  89 004a 8946     		mov	r9, r1
  90 004c FFF7FEFF 		bl	__aeabi_d2iz
  91              	.LVL11:
  92 0050 FFF7FEFF 		bl	__aeabi_i2d
  93              	.LVL12:
  94 0054 0646     		mov	r6, r0
  95              	.LVL13:
  96 0056 0F46     		mov	r7, r1
  97              	.LVL14:
 285:main.c        **** 		Sec_Val=((lon-(Deg_Val*100))-Min_Val)*100;
  98              		.loc 1 285 0
  99 0058 0246     		mov	r2, r0
 100 005a 0B46     		mov	r3, r1
 101 005c 4046     		mov	r0, r8
 102 005e 4946     		mov	r1, r9
 103 0060 FFF7FEFF 		bl	__aeabi_dsub
 104              	.LVL15:
 105 0064 0022     		movs	r2, #0
 106 0066 3C4B     		ldr	r3, .L4+16
 107 0068 FFF7FEFF 		bl	__aeabi_dmul
 108              	.LVL16:
 109 006c 8046     		mov	r8, r0
 110 006e 8946     		mov	r9, r1
 111              	.LVL17:
 286:main.c        **** 		GpsData->longitude=Deg_Val+(Min_Val*Min_To_Degree)+(Sec_Val*Sec_To_Degree);
 112              		.loc 1 286 0
 113 0070 35A3     		adr	r3, .L4
ARM GAS  C:\Users\MARKHU~1\AppData\Local\Temp\ccbVr9K6.s 			page 8


 114 0072 D3E90023 		ldrd	r2, [r3]
 115 0076 3046     		mov	r0, r6
 116 0078 3946     		mov	r1, r7
 117 007a FFF7FEFF 		bl	__aeabi_dmul
 118              	.LVL18:
 119 007e 0246     		mov	r2, r0
 120 0080 0B46     		mov	r3, r1
 121 0082 DDE90001 		ldrd	r0, [sp]
 122 0086 FFF7FEFF 		bl	__aeabi_dadd
 123              	.LVL19:
 124 008a 0646     		mov	r6, r0
 125              	.LVL20:
 126 008c 0F46     		mov	r7, r1
 127 008e 30A3     		adr	r3, .L4+8
 128 0090 D3E90023 		ldrd	r2, [r3]
 129 0094 4046     		mov	r0, r8
 130 0096 4946     		mov	r1, r9
 131 0098 FFF7FEFF 		bl	__aeabi_dmul
 132              	.LVL21:
 133 009c 0246     		mov	r2, r0
 134 009e 0B46     		mov	r3, r1
 135 00a0 3046     		mov	r0, r6
 136 00a2 3946     		mov	r1, r7
 137 00a4 FFF7FEFF 		bl	__aeabi_dadd
 138              	.LVL22:
 139 00a8 CAE90401 		strd	r0, [r10, #16]
 287:main.c        **** 
 288:main.c        **** 		Deg_Val=(int)((lat/100));
 140              		.loc 1 288 0
 141 00ac 0022     		movs	r2, #0
 142 00ae 2A4B     		ldr	r3, .L4+16
 143 00b0 2046     		mov	r0, r4
 144 00b2 2946     		mov	r1, r5
 145 00b4 FFF7FEFF 		bl	__aeabi_ddiv
 146              	.LVL23:
 147 00b8 FFF7FEFF 		bl	__aeabi_d2iz
 148              	.LVL24:
 149 00bc FFF7FEFF 		bl	__aeabi_i2d
 150              	.LVL25:
 151 00c0 8046     		mov	r8, r0
 152              	.LVL26:
 153 00c2 8946     		mov	r9, r1
 154              	.LVL27:
 289:main.c        **** 		Min_Val=(int)(lat-(Deg_Val*100));
 155              		.loc 1 289 0
 156 00c4 0022     		movs	r2, #0
 157 00c6 244B     		ldr	r3, .L4+16
 158 00c8 FFF7FEFF 		bl	__aeabi_dmul
 159              	.LVL28:
 160 00cc 0246     		mov	r2, r0
 161 00ce 0B46     		mov	r3, r1
 162 00d0 2046     		mov	r0, r4
 163 00d2 2946     		mov	r1, r5
 164 00d4 FFF7FEFF 		bl	__aeabi_dsub
 165              	.LVL29:
 166 00d8 0646     		mov	r6, r0
 167 00da 0F46     		mov	r7, r1
ARM GAS  C:\Users\MARKHU~1\AppData\Local\Temp\ccbVr9K6.s 			page 9


 168 00dc FFF7FEFF 		bl	__aeabi_d2iz
 169              	.LVL30:
 170 00e0 FFF7FEFF 		bl	__aeabi_i2d
 171              	.LVL31:
 172 00e4 0446     		mov	r4, r0
 173              	.LVL32:
 174 00e6 0D46     		mov	r5, r1
 175              	.LVL33:
 290:main.c        **** 		Sec_Val=((lat-(Deg_Val*100))-Min_Val)*10;
 176              		.loc 1 290 0
 177 00e8 0246     		mov	r2, r0
 178 00ea 0B46     		mov	r3, r1
 179 00ec 3046     		mov	r0, r6
 180 00ee 3946     		mov	r1, r7
 181 00f0 FFF7FEFF 		bl	__aeabi_dsub
 182              	.LVL34:
 183 00f4 0022     		movs	r2, #0
 184 00f6 194B     		ldr	r3, .L4+20
 185 00f8 FFF7FEFF 		bl	__aeabi_dmul
 186              	.LVL35:
 187 00fc 0646     		mov	r6, r0
 188 00fe 0F46     		mov	r7, r1
 189              	.LVL36:
 291:main.c        **** 		GpsData->latitude=(Deg_Val+(Min_Val*Min_To_Degree)+(Sec_Val*Sec_To_Degree))*-1;
 190              		.loc 1 291 0
 191 0100 11A3     		adr	r3, .L4
 192 0102 D3E90023 		ldrd	r2, [r3]
 193 0106 2046     		mov	r0, r4
 194 0108 2946     		mov	r1, r5
 195 010a FFF7FEFF 		bl	__aeabi_dmul
 196              	.LVL37:
 197 010e 0246     		mov	r2, r0
 198 0110 0B46     		mov	r3, r1
 199 0112 4046     		mov	r0, r8
 200 0114 4946     		mov	r1, r9
 201 0116 FFF7FEFF 		bl	__aeabi_dadd
 202              	.LVL38:
 203 011a 0446     		mov	r4, r0
 204              	.LVL39:
 205 011c 0D46     		mov	r5, r1
 206 011e 0CA3     		adr	r3, .L4+8
 207 0120 D3E90023 		ldrd	r2, [r3]
 208 0124 3046     		mov	r0, r6
 209 0126 3946     		mov	r1, r7
 210 0128 FFF7FEFF 		bl	__aeabi_dmul
 211              	.LVL40:
 212 012c 0246     		mov	r2, r0
 213 012e 0B46     		mov	r3, r1
 214 0130 2046     		mov	r0, r4
 215 0132 2946     		mov	r1, r5
 216 0134 FFF7FEFF 		bl	__aeabi_dadd
 217              	.LVL41:
 218 0138 0246     		mov	r2, r0
 219 013a 01F10043 		add	r3, r1, #-2147483648
 220 013e CAE90223 		strd	r2, [r10, #8]
 221              	.LVL42:
 222              	.L1:
ARM GAS  C:\Users\MARKHU~1\AppData\Local\Temp\ccbVr9K6.s 			page 10


 292:main.c        **** 	}
 293:main.c        **** }
 223              		.loc 1 293 0
 224 0142 02B0     		add	sp, sp, #8
 225              		.cfi_def_cfa_offset 32
 226              		@ sp needed
 227 0144 BDE8F087 		pop	{r4, r5, r6, r7, r8, r9, r10, pc}
 228              	.L5:
 229              		.align	3
 230              	.L4:
 231 0148 11BA1F11 		.word	287291921
 232 014c 1111913F 		.word	1066471697
 233 0150 AB49D978 		.word	2027506091
 234 0154 5634323F 		.word	1060254806
 235 0158 00005940 		.word	1079574528
 236 015c 00002440 		.word	1076101120
 237              		.cfi_endproc
 238              	.LFE66:
 239              		.size	NEO_GPS_Location, .-NEO_GPS_Location
 240              		.section	.text.Get_GpsData,"ax",%progbits
 241              		.align	2
 242              		.global	Get_GpsData
 243              		.thumb
 244              		.thumb_func
 245              		.type	Get_GpsData, %function
 246              	Get_GpsData:
 247              	.LFB65:
 245:main.c        ****     char *P;
 248              		.loc 1 245 0
 249              		.cfi_startproc
 250              		@ args = 0, pretend = 0, frame = 0
 251              		@ frame_needed = 0, uses_anonymous_args = 0
 252              	.LVL43:
 253 0000 70B5     		push	{r4, r5, r6, lr}
 254              		.cfi_def_cfa_offset 16
 255              		.cfi_offset 4, -16
 256              		.cfi_offset 5, -12
 257              		.cfi_offset 6, -8
 258              		.cfi_offset 14, -4
 259 0002 86B0     		sub	sp, sp, #24
 260              		.cfi_def_cfa_offset 40
 261 0004 0446     		mov	r4, r0
 248:main.c        ****         {
 262              		.loc 1 248 0
 263 0006 FFF7FEFF 		bl	GPS_GetRxBufferSize
 264              	.LVL44:
 265 000a 88B9     		cbnz	r0, .L9
 266 000c 17E0     		b	.L8
 267              	.L10:
 252:main.c        ****                 GPS_UART_RX_Wr_Index++;
 268              		.loc 1 252 0
 269 000e 264D     		ldr	r5, .L16
 270 0010 2E68     		ldr	r6, [r5]
 271 0012 FFF7FEFF 		bl	GPS_GetChar
 272              	.LVL45:
 273 0016 2644     		add	r6, r6, r4
 274 0018 86F82A00 		strb	r0, [r6, #42]
ARM GAS  C:\Users\MARKHU~1\AppData\Local\Temp\ccbVr9K6.s 			page 11


 253:main.c        ****                 if (GPS_UART_RX_Wr_Index == GPS_UART_RX_BUFFER_SIZE)
 275              		.loc 1 253 0
 276 001c 2B68     		ldr	r3, [r5]
 277 001e 0133     		adds	r3, r3, #1
 278 0020 2B60     		str	r3, [r5]
 254:main.c        ****                 {
 279              		.loc 1 254 0
 280 0022 B3F5807F 		cmp	r3, #256
 281 0026 03D1     		bne	.L9
 256:main.c        ****                     GPS_UART_RX_Full = 1;
 282              		.loc 1 256 0
 283 0028 0022     		movs	r2, #0
 284 002a 2A60     		str	r2, [r5]
 257:main.c        ****                 }
 285              		.loc 1 257 0
 286 002c 0122     		movs	r2, #1
 287 002e 6A60     		str	r2, [r5, #4]
 288              	.L9:
 250:main.c        ****             {
 289              		.loc 1 250 0
 290 0030 FFF7FEFF 		bl	GPS_GetRxBufferSize
 291              	.LVL46:
 292 0034 18B1     		cbz	r0, .L8
 250:main.c        ****             {
 293              		.loc 1 250 0 is_stmt 0 discriminator 1
 294 0036 1C4B     		ldr	r3, .L16
 295 0038 5B68     		ldr	r3, [r3, #4]
 296 003a 002B     		cmp	r3, #0
 297 003c E7D0     		beq	.L10
 298              	.L8:
 261:main.c        ****     if(*P=='G')
 299              		.loc 1 261 0 is_stmt 1
 300 003e 1B49     		ldr	r1, .L16+4
 301 0040 04F12A00 		add	r0, r4, #42
 302 0044 FFF7FEFF 		bl	strstr
 303              	.LVL47:
 262:main.c        **** 			{
 304              		.loc 1 262 0
 305 0048 0378     		ldrb	r3, [r0]	@ zero_extendqisi2
 306 004a 472B     		cmp	r3, #71
 307 004c 2AD1     		bne	.L6
 308 004e 04E0     		b	.L14
 309              	.LVL48:
 310              	.L13:
 267:main.c        **** 					n++;}
 311              		.loc 1 267 0
 312 0050 E118     		adds	r1, r4, r3
 313 0052 81F87C23 		strb	r2, [r1, #892]
 268:main.c        **** 					sprintf(GpsData->buffer,"%s\r\n\n",GpsData->location);
 314              		.loc 1 268 0
 315 0056 0133     		adds	r3, r3, #1
 316              	.LVL49:
 317 0058 00E0     		b	.L11
 318              	.LVL50:
 319              	.L14:
 320 005a 0023     		movs	r3, #0
 321              	.L11:
ARM GAS  C:\Users\MARKHU~1\AppData\Local\Temp\ccbVr9K6.s 			page 12


 322              	.LVL51:
 265:main.c        **** 
 323              		.loc 1 265 0
 324 005c C25C     		ldrb	r2, [r0, r3]	@ zero_extendqisi2
 325 005e 0A2A     		cmp	r2, #10
 326 0060 F6D1     		bne	.L13
 269:main.c        **** 					sscanf(GpsData->buffer,"GPRMC,%lf,A,%lf,%c,%lf,%c,%lf,,%lf,,,A*64",&GpsData->time,&GpsData->la
 327              		.loc 1 269 0
 328 0062 04F54675 		add	r5, r4, #792
 329 0066 04F55F72 		add	r2, r4, #892
 330 006a 1149     		ldr	r1, .L16+8
 331 006c 2846     		mov	r0, r5
 332              	.LVL52:
 333 006e FFF7FEFF 		bl	sprintf
 334              	.LVL53:
 270:main.c        **** 					NEO_GPS_Location(GpsData);
 335              		.loc 1 270 0
 336 0072 04F12003 		add	r3, r4, #32
 337 0076 0493     		str	r3, [sp, #16]
 338 0078 04F11803 		add	r3, r4, #24
 339 007c 0393     		str	r3, [sp, #12]
 340 007e 04F12903 		add	r3, r4, #41
 341 0082 0293     		str	r3, [sp, #8]
 342 0084 04F11003 		add	r3, r4, #16
 343 0088 0193     		str	r3, [sp, #4]
 344 008a 04F12803 		add	r3, r4, #40
 345 008e 0093     		str	r3, [sp]
 346 0090 04F10803 		add	r3, r4, #8
 347 0094 2246     		mov	r2, r4
 348 0096 0749     		ldr	r1, .L16+12
 349 0098 2846     		mov	r0, r5
 350 009a FFF7FEFF 		bl	sscanf
 351              	.LVL54:
 271:main.c        **** 			}
 352              		.loc 1 271 0
 353 009e 2046     		mov	r0, r4
 354 00a0 FFF7FEFF 		bl	NEO_GPS_Location
 355              	.LVL55:
 356              	.L6:
 273:main.c        **** 
 357              		.loc 1 273 0
 358 00a4 06B0     		add	sp, sp, #24
 359              		.cfi_def_cfa_offset 16
 360              		@ sp needed
 361 00a6 70BD     		pop	{r4, r5, r6, pc}
 362              	.LVL56:
 363              	.L17:
 364              		.align	2
 365              	.L16:
 366 00a8 00000000 		.word	.LANCHOR0
 367 00ac 00000000 		.word	.LC0
 368 00b0 08000000 		.word	.LC1
 369 00b4 10000000 		.word	.LC2
 370              		.cfi_endproc
 371              	.LFE65:
 372              		.size	Get_GpsData, .-Get_GpsData
 373              		.section	.text.main,"ax",%progbits
ARM GAS  C:\Users\MARKHU~1\AppData\Local\Temp\ccbVr9K6.s 			page 13


 374              		.align	2
 375              		.global	main
 376              		.thumb
 377              		.thumb_func
 378              		.type	main, %function
 379              	main:
 380              	.LFB64:
  89:main.c        ****     CyGlobalIntEnable; /* Enable global interrupts. */
 381              		.loc 1 89 0
 382              		.cfi_startproc
 383              		@ args = 0, pretend = 0, frame = 0
 384              		@ frame_needed = 0, uses_anonymous_args = 0
 385 0000 70B5     		push	{r4, r5, r6, lr}
 386              		.cfi_def_cfa_offset 16
 387              		.cfi_offset 4, -16
 388              		.cfi_offset 5, -12
 389              		.cfi_offset 6, -8
 390              		.cfi_offset 14, -4
  90:main.c        ****     
 391              		.loc 1 90 0
 392              		.syntax unified
 393              	@ 90 "main.c" 1
 394 0002 62B6     		CPSIE   i
 395              	@ 0 "" 2
  94:main.c        ****     GPS_Start();
 396              		.loc 1 94 0
 397              		.thumb
 398              		.syntax unified
 399 0004 FFF7FEFF 		bl	UART_Start
 400              	.LVL57:
  95:main.c        ****     /* Place your initialization/startup code here (e.g. MyInst_Start()) */
 401              		.loc 1 95 0
 402 0008 FFF7FEFF 		bl	GPS_Start
 403              	.LVL58:
  97:main.c        ****     PW_GPS_Write(1);
 404              		.loc 1 97 0
 405 000c 0120     		movs	r0, #1
 406 000e 444B     		ldr	r3, .L32
 407 0010 9860     		str	r0, [r3, #8]
  98:main.c        ****         
 408              		.loc 1 98 0
 409 0012 FFF7FEFF 		bl	PW_GPS_Write
 410              	.LVL59:
 100:main.c        ****     CyDelay(500);
 411              		.loc 1 100 0
 412 0016 4348     		ldr	r0, .L32+4
 413 0018 FFF7FEFF 		bl	UART_PutString
 414              	.LVL60:
 101:main.c        ****     UART_PutString("Start Serial to UART!! \r\n"); //Print String to Serial
 415              		.loc 1 101 0
 416 001c 4FF4FA70 		mov	r0, #500
 417 0020 FFF7FEFF 		bl	CyDelay
 418              	.LVL61:
 102:main.c        ****     UART_PutString("PSoC 5LP UART Communicate Test \r\n");
 419              		.loc 1 102 0
 420 0024 4048     		ldr	r0, .L32+8
 421 0026 FFF7FEFF 		bl	UART_PutString
ARM GAS  C:\Users\MARKHU~1\AppData\Local\Temp\ccbVr9K6.s 			page 14


 422              	.LVL62:
 103:main.c        ****     UART_PutString(
 423              		.loc 1 103 0
 424 002a 4048     		ldr	r0, .L32+12
 425 002c FFF7FEFF 		bl	UART_PutString
 426              	.LVL63:
 104:main.c        ****         "Hello World! \r\n"
 427              		.loc 1 104 0
 428 0030 3F48     		ldr	r0, .L32+16
 429 0032 FFF7FEFF 		bl	UART_PutString
 430              	.LVL64:
 113:main.c        ****     //UART_PutString("Sending UBlock Config Command \r\n");
 431              		.loc 1 113 0
 432 0036 3E20     		movs	r0, #62
 433 0038 FFF7FEFF 		bl	UART_PutChar
 434              	.LVL65:
 435              	.L29:
 125:main.c        ****         if(c) {
 436              		.loc 1 125 0
 437 003c FFF7FEFF 		bl	UART_GetChar
 438              	.LVL66:
 126:main.c        ****             UART_PutChar(c);
 439              		.loc 1 126 0
 440 0040 0646     		mov	r6, r0
 441 0042 20B1     		cbz	r0, .L19
 127:main.c        ****             GPS_PutChar(c);
 442              		.loc 1 127 0
 443 0044 FFF7FEFF 		bl	UART_PutChar
 444              	.LVL67:
 128:main.c        ****         } //Echo
 445              		.loc 1 128 0
 446 0048 3046     		mov	r0, r6
 447 004a FFF7FEFF 		bl	GPS_PutChar
 448              	.LVL68:
 449              	.L19:
 156:main.c        ****         {
 450              		.loc 1 156 0
 451 004e 312E     		cmp	r6, #49
 452 0050 08D1     		bne	.L20
 158:main.c        ****             GPS_PutString("$PUBX,41,1,0007,0003,9600,0*5C\r\n"); //set the uart to the binary packe
 453              		.loc 1 158 0
 454 0052 3848     		ldr	r0, .L32+20
 455 0054 FFF7FEFF 		bl	UART_PutString
 456              	.LVL69:
 159:main.c        ****             GPS_PutString("$PUBX,40,GLL,0,0,0,0*5C\r\n"); // request GPS Fix Data
 457              		.loc 1 159 0
 458 0058 3748     		ldr	r0, .L32+24
 459 005a FFF7FEFF 		bl	GPS_PutString
 460              	.LVL70:
 160:main.c        ****         }
 461              		.loc 1 160 0
 462 005e 3748     		ldr	r0, .L32+28
 463 0060 FFF7FEFF 		bl	GPS_PutString
 464              	.LVL71:
 465              	.L20:
 162:main.c        ****         {
 466              		.loc 1 162 0
ARM GAS  C:\Users\MARKHU~1\AppData\Local\Temp\ccbVr9K6.s 			page 15


 467 0064 322E     		cmp	r6, #50
 468 0066 08D1     		bne	.L21
 164:main.c        ****             GPS_PutString("$PUBX,41,1,0007,0003,9600,0*5C\r\n"); //set the uart to the binary packe
 469              		.loc 1 164 0
 470 0068 3548     		ldr	r0, .L32+32
 471 006a FFF7FEFF 		bl	UART_PutString
 472              	.LVL72:
 165:main.c        ****             GPS_PutString("$PUBX,40,GLL,1,1,0,0*5C\r\n"); // request GPS Fix Data
 473              		.loc 1 165 0
 474 006e 3248     		ldr	r0, .L32+24
 475 0070 FFF7FEFF 		bl	GPS_PutString
 476              	.LVL73:
 166:main.c        ****         }
 477              		.loc 1 166 0
 478 0074 3348     		ldr	r0, .L32+36
 479 0076 FFF7FEFF 		bl	GPS_PutString
 480              	.LVL74:
 481              	.L21:
 168:main.c        ****         {
 482              		.loc 1 168 0
 483 007a 332E     		cmp	r6, #51
 484 007c 09D1     		bne	.L22
 171:main.c        ****             UART_PutString("DISABLE_TELIT_GSV_GSA_GLL_VTG");
 485              		.loc 1 171 0
 486 007e 324C     		ldr	r4, .L32+40
 487 0080 2046     		mov	r0, r4
 488 0082 FFF7FEFF 		bl	UART_PutString
 489              	.LVL75:
 172:main.c        ****             GPS_PutString("$PMTK314,0,1,0,1,0,0,0,0,0,0,0,0,0,0,0,0,0,0,0*28\r\n"); //DISABLE_TELIT
 490              		.loc 1 172 0
 491 0086 3148     		ldr	r0, .L32+44
 492 0088 FFF7FEFF 		bl	UART_PutString
 493              	.LVL76:
 173:main.c        ****         }
 494              		.loc 1 173 0
 495 008c 2046     		mov	r0, r4
 496 008e FFF7FEFF 		bl	GPS_PutString
 497              	.LVL77:
 498              	.L22:
 175:main.c        ****         {
 499              		.loc 1 175 0
 500 0092 342E     		cmp	r6, #52
 501 0094 09D1     		bne	.L23
 178:main.c        ****             UART_PutString("ENABLE_TELIT_GSV_GSA_GLL_VTG\r\n");
 502              		.loc 1 178 0
 503 0096 2E4C     		ldr	r4, .L32+48
 504 0098 2046     		mov	r0, r4
 505 009a FFF7FEFF 		bl	UART_PutString
 506              	.LVL78:
 179:main.c        ****             GPS_PutString("$PMTK314,1,1,1,1,1,5,0,0,0,0,0,0,0,0,0,0,0,0,0*28\r\n"); //ENABLE_TELIT_
 507              		.loc 1 179 0
 508 009e 2D48     		ldr	r0, .L32+52
 509 00a0 FFF7FEFF 		bl	UART_PutString
 510              	.LVL79:
 180:main.c        ****         }
 511              		.loc 1 180 0
 512 00a4 2046     		mov	r0, r4
ARM GAS  C:\Users\MARKHU~1\AppData\Local\Temp\ccbVr9K6.s 			page 16


 513 00a6 FFF7FEFF 		bl	GPS_PutString
 514              	.LVL80:
 515              	.L23:
 183:main.c        ****         {
 516              		.loc 1 183 0
 517 00aa FFF7FEFF 		bl	GPS_GetRxBufferSize
 518              	.LVL81:
 519 00ae 80B9     		cbnz	r0, .L26
 520 00b0 16E0     		b	.L25
 521              	.L27:
 187:main.c        ****                 GPS_UART_RX_Wr_Index++;
 522              		.loc 1 187 0
 523 00b2 1B4C     		ldr	r4, .L32
 524 00b4 2568     		ldr	r5, [r4]
 525 00b6 FFF7FEFF 		bl	GPS_GetChar
 526              	.LVL82:
 527 00ba 274B     		ldr	r3, .L32+56
 528 00bc 5855     		strb	r0, [r3, r5]
 188:main.c        ****                 if (GPS_UART_RX_Wr_Index == GPS_UART_RX_BUFFER_SIZE)
 529              		.loc 1 188 0
 530 00be 2368     		ldr	r3, [r4]
 531 00c0 0133     		adds	r3, r3, #1
 532 00c2 2360     		str	r3, [r4]
 189:main.c        ****                 {
 533              		.loc 1 189 0
 534 00c4 B3F5807F 		cmp	r3, #256
 535 00c8 03D1     		bne	.L26
 191:main.c        ****                     GPS_UART_RX_Full = 1;
 536              		.loc 1 191 0
 537 00ca 0022     		movs	r2, #0
 538 00cc 2260     		str	r2, [r4]
 192:main.c        ****                 }
 539              		.loc 1 192 0
 540 00ce 0122     		movs	r2, #1
 541 00d0 6260     		str	r2, [r4, #4]
 542              	.L26:
 185:main.c        ****             {
 543              		.loc 1 185 0
 544 00d2 FFF7FEFF 		bl	GPS_GetRxBufferSize
 545              	.LVL83:
 546 00d6 18B1     		cbz	r0, .L25
 185:main.c        ****             {
 547              		.loc 1 185 0 is_stmt 0 discriminator 1
 548 00d8 114B     		ldr	r3, .L32
 549 00da 5B68     		ldr	r3, [r3, #4]
 550 00dc 002B     		cmp	r3, #0
 551 00de E8D0     		beq	.L27
 552              	.L25:
 197:main.c        ****         {
 553              		.loc 1 197 0 is_stmt 1
 554 00e0 FFF7FEFF 		bl	UART_GetTxBufferSize
 555              	.LVL84:
 556 00e4 98B9     		cbnz	r0, .L28
 197:main.c        ****         {
 557              		.loc 1 197 0 is_stmt 0 discriminator 1
 558 00e6 0E4B     		ldr	r3, .L32
 559 00e8 DA68     		ldr	r2, [r3, #12]
ARM GAS  C:\Users\MARKHU~1\AppData\Local\Temp\ccbVr9K6.s 			page 17


 560 00ea 1B68     		ldr	r3, [r3]
 561 00ec 9A42     		cmp	r2, r3
 562 00ee 0ED0     		beq	.L28
 199:main.c        ****             GPS_UART_RX_Rd_Index++;
 563              		.loc 1 199 0 is_stmt 1
 564 00f0 194B     		ldr	r3, .L32+56
 565 00f2 985C     		ldrb	r0, [r3, r2]	@ zero_extendqisi2
 566 00f4 FFF7FEFF 		bl	UART_PutChar
 567              	.LVL85:
 200:main.c        ****             if (GPS_UART_RX_Rd_Index == GPS_UART_RX_BUFFER_SIZE)
 568              		.loc 1 200 0
 569 00f8 094A     		ldr	r2, .L32
 570 00fa D368     		ldr	r3, [r2, #12]
 571 00fc 0133     		adds	r3, r3, #1
 572 00fe D360     		str	r3, [r2, #12]
 201:main.c        ****             {
 573              		.loc 1 201 0
 574 0100 B3F5807F 		cmp	r3, #256
 575 0104 03D1     		bne	.L28
 203:main.c        ****                 GPS_UART_RX_Full = 0;
 576              		.loc 1 203 0
 577 0106 1346     		mov	r3, r2
 578 0108 0022     		movs	r2, #0
 579 010a DA60     		str	r2, [r3, #12]
 204:main.c        ****             }
 580              		.loc 1 204 0
 581 010c 5A60     		str	r2, [r3, #4]
 582              	.L28:
 208:main.c        ****         {
 583              		.loc 1 208 0
 584 010e 362E     		cmp	r6, #54
 585 0110 94D1     		bne	.L29
 210:main.c        ****             Get_GpsData(&GPS_Data);
 586              		.loc 1 210 0
 587 0112 1248     		ldr	r0, .L32+60
 588 0114 FFF7FEFF 		bl	UART_PutString
 589              	.LVL86:
 211:main.c        ****         }
 590              		.loc 1 211 0
 591 0118 1148     		ldr	r0, .L32+64
 592 011a FFF7FEFF 		bl	Get_GpsData
 593              	.LVL87:
 594 011e 8DE7     		b	.L29
 595              	.L33:
 596              		.align	2
 597              	.L32:
 598 0120 00000000 		.word	.LANCHOR0
 599 0124 3C000000 		.word	.LC3
 600 0128 4C000000 		.word	.LC4
 601 012c 68000000 		.word	.LC5
 602 0130 8C000000 		.word	.LC6
 603 0134 34010000 		.word	.LC7
 604 0138 54010000 		.word	.LC8
 605 013c 78010000 		.word	.LC9
 606 0140 94010000 		.word	.LC10
 607 0144 B4010000 		.word	.LC11
 608 0148 D0010000 		.word	.LC12
ARM GAS  C:\Users\MARKHU~1\AppData\Local\Temp\ccbVr9K6.s 			page 18


 609 014c 04020000 		.word	.LC13
 610 0150 24020000 		.word	.LC14
 611 0154 58020000 		.word	.LC15
 612 0158 00000000 		.word	GPS_UART_RX_Buffer
 613 015c 78020000 		.word	.LC16
 614 0160 00000000 		.word	GPS_Data
 615              		.cfi_endproc
 616              	.LFE64:
 617              		.size	main, .-main
 618              		.section	.text.DTC_DEBUG,"ax",%progbits
 619              		.align	2
 620              		.global	DTC_DEBUG
 621              		.thumb
 622              		.thumb_func
 623              		.type	DTC_DEBUG, %function
 624              	DTC_DEBUG:
 625              	.LFB67:
 294:main.c        **** void DTC_DEBUG( char * debugstr ) {
 626              		.loc 1 294 0
 627              		.cfi_startproc
 628              		@ args = 0, pretend = 0, frame = 0
 629              		@ frame_needed = 0, uses_anonymous_args = 0
 630              	.LVL88:
 631 0000 08B5     		push	{r3, lr}
 632              		.cfi_def_cfa_offset 8
 633              		.cfi_offset 3, -8
 634              		.cfi_offset 14, -4
 295:main.c        ****     if( DTC_DEBUG_TIMER > 0 ) {
 635              		.loc 1 295 0
 636 0002 034B     		ldr	r3, .L37
 637 0004 9B68     		ldr	r3, [r3, #8]
 638 0006 002B     		cmp	r3, #0
 639 0008 01DD     		ble	.L34
 296:main.c        ****         UART_PutString( debugstr );
 640              		.loc 1 296 0
 641 000a FFF7FEFF 		bl	UART_PutString
 642              	.LVL89:
 643              	.L34:
 644 000e 08BD     		pop	{r3, pc}
 645              	.L38:
 646              		.align	2
 647              	.L37:
 648 0010 00000000 		.word	.LANCHOR0
 649              		.cfi_endproc
 650              	.LFE67:
 651              		.size	DTC_DEBUG, .-DTC_DEBUG
 652              		.section	.text.NewLine,"ax",%progbits
 653              		.align	2
 654              		.global	NewLine
 655              		.thumb
 656              		.thumb_func
 657              		.type	NewLine, %function
 658              	NewLine:
 659              	.LFB68:
 297:main.c        ****     }
 298:main.c        **** }
 299:main.c        **** 
ARM GAS  C:\Users\MARKHU~1\AppData\Local\Temp\ccbVr9K6.s 			page 19


 300:main.c        **** void NewLine (void)
 301:main.c        **** {
 660              		.loc 1 301 0
 661              		.cfi_startproc
 662              		@ args = 0, pretend = 0, frame = 0
 663              		@ frame_needed = 0, uses_anonymous_args = 0
 664 0000 08B5     		push	{r3, lr}
 665              		.cfi_def_cfa_offset 8
 666              		.cfi_offset 3, -8
 667              		.cfi_offset 14, -4
 302:main.c        ****     UART_PutString("\r\n");
 668              		.loc 1 302 0
 669 0002 0248     		ldr	r0, .L41
 670 0004 FFF7FEFF 		bl	UART_PutString
 671              	.LVL90:
 672 0008 08BD     		pop	{r3, pc}
 673              	.L42:
 674 000a 00BF     		.align	2
 675              	.L41:
 676 000c 88020000 		.word	.LC17
 677              		.cfi_endproc
 678              	.LFE68:
 679              		.size	NewLine, .-NewLine
 680              		.comm	GPS_Data,992,8
 681              		.global	DTC_DEBUG_TIMER
 682              		.global	GPS_UART_RX_Full
 683              		.global	GPS_UART_RX_Rd_Index
 684              		.global	GPS_UART_RX_Wr_Index
 685              		.comm	GPS_UART_RX_Buffer,256,4
 686              		.section	.rodata.str1.4,"aMS",%progbits,1
 687              		.align	2
 688              	.LC0:
 689 0000 26475052 		.ascii	"&GPRMC\000"
 689      4D4300
 690 0007 00       		.space	1
 691              	.LC1:
 692 0008 25730D0A 		.ascii	"%s\015\012\012\000"
 692      0A00
 693 000e 0000     		.space	2
 694              	.LC2:
 695 0010 4750524D 		.ascii	"GPRMC,%lf,A,%lf,%c,%lf,%c,%lf,,%lf,,,A*64\000"
 695      432C256C 
 695      662C412C 
 695      256C662C 
 695      25632C25 
 696 003a 0000     		.space	2
 697              	.LC3:
 698 003c 496E6974 		.ascii	"Initializing \015\012\000"
 698      69616C69 
 698      7A696E67 
 698      200D0A00 
 699              	.LC4:
 700 004c 53746172 		.ascii	"Start Serial to UART!! \015\012\000"
 700      74205365 
 700      7269616C 
 700      20746F20 
 700      55415254 
ARM GAS  C:\Users\MARKHU~1\AppData\Local\Temp\ccbVr9K6.s 			page 20


 701 0066 0000     		.space	2
 702              	.LC5:
 703 0068 50536F43 		.ascii	"PSoC 5LP UART Communicate Test \015\012\000"
 703      20354C50 
 703      20554152 
 703      5420436F 
 703      6D6D756E 
 704 008a 0000     		.space	2
 705              	.LC6:
 706 008c 48656C6C 		.ascii	"Hello World! \015\0121&s is send ublox command \015"
 706      6F20576F 
 706      726C6421 
 706      200D0A31 
 706      26732069 
 707 00b6 0A332069 		.ascii	"\0123 is DISABLE_TELIT_GSV_GSA_GLL_VTG\015\0124 is "
 707      73204449 
 707      5341424C 
 707      455F5445 
 707      4C49545F 
 708 00e0 454E4142 		.ascii	"ENABLE_TELIT_GSV_GSA_GLL_VTG \015\0125 is UART Firs"
 708      4C455F54 
 708      454C4954 
 708      5F475356 
 708      5F475341 
 709 010d 74204D65 		.ascii	"t Method\015\0126 is UART Second Method\015\012\000"
 709      74686F64 
 709      0D0A3620 
 709      69732055 
 709      41525420 
 710 0131 000000   		.space	3
 711              	.LC7:
 712 0134 53656E64 		.ascii	"Sending GPS Config GLL 0 ...\015\012\000"
 712      696E6720 
 712      47505320 
 712      436F6E66 
 712      69672047 
 713 0153 00       		.space	1
 714              	.LC8:
 715 0154 24505542 		.ascii	"$PUBX,41,1,0007,0003,9600,0*5C\015\012\000"
 715      582C3431 
 715      2C312C30 
 715      3030372C 
 715      30303033 
 716 0175 000000   		.space	3
 717              	.LC9:
 718 0178 24505542 		.ascii	"$PUBX,40,GLL,0,0,0,0*5C\015\012\000"
 718      582C3430 
 718      2C474C4C 
 718      2C302C30 
 718      2C302C30 
 719 0192 0000     		.space	2
 720              	.LC10:
 721 0194 53656E64 		.ascii	"Sending GPS Config GLL 1 ...\015\012\000"
 721      696E6720 
 721      47505320 
 721      436F6E66 
 721      69672047 
ARM GAS  C:\Users\MARKHU~1\AppData\Local\Temp\ccbVr9K6.s 			page 21


 722 01b3 00       		.space	1
 723              	.LC11:
 724 01b4 24505542 		.ascii	"$PUBX,40,GLL,1,1,0,0*5C\015\012\000"
 724      582C3430 
 724      2C474C4C 
 724      2C312C31 
 724      2C302C30 
 725 01ce 0000     		.space	2
 726              	.LC12:
 727 01d0 24504D54 		.ascii	"$PMTK314,0,1,0,1,0,0,0,0,0,0,0,0,0,0,0,0,0,0,0*28\015"
 727      4B333134 
 727      2C302C31 
 727      2C302C31 
 727      2C302C30 
 728 0202 0A00     		.ascii	"\012\000"
 729              	.LC13:
 730 0204 44495341 		.ascii	"DISABLE_TELIT_GSV_GSA_GLL_VTG\000"
 730      424C455F 
 730      54454C49 
 730      545F4753 
 730      565F4753 
 731 0222 0000     		.space	2
 732              	.LC14:
 733 0224 24504D54 		.ascii	"$PMTK314,1,1,1,1,1,5,0,0,0,0,0,0,0,0,0,0,0,0,0*28\015"
 733      4B333134 
 733      2C312C31 
 733      2C312C31 
 733      2C312C35 
 734 0256 0A00     		.ascii	"\012\000"
 735              	.LC15:
 736 0258 454E4142 		.ascii	"ENABLE_TELIT_GSV_GSA_GLL_VTG\015\012\000"
 736      4C455F54 
 736      454C4954 
 736      5F475356 
 736      5F475341 
 737 0277 00       		.space	1
 738              	.LC16:
 739 0278 5365636F 		.ascii	"Second Method\015\012\000"
 739      6E64204D 
 739      6574686F 
 739      640D0A00 
 740              	.LC17:
 741 0288 0D0A00   		.ascii	"\015\012\000"
 742              		.bss
 743              		.align	2
 744              		.set	.LANCHOR0,. + 0
 745              		.type	GPS_UART_RX_Wr_Index, %object
 746              		.size	GPS_UART_RX_Wr_Index, 4
 747              	GPS_UART_RX_Wr_Index:
 748 0000 00000000 		.space	4
 749              		.type	GPS_UART_RX_Full, %object
 750              		.size	GPS_UART_RX_Full, 4
 751              	GPS_UART_RX_Full:
 752 0004 00000000 		.space	4
 753              		.type	DTC_DEBUG_TIMER, %object
 754              		.size	DTC_DEBUG_TIMER, 4
 755              	DTC_DEBUG_TIMER:
ARM GAS  C:\Users\MARKHU~1\AppData\Local\Temp\ccbVr9K6.s 			page 22


 756 0008 00000000 		.space	4
 757              		.type	GPS_UART_RX_Rd_Index, %object
 758              		.size	GPS_UART_RX_Rd_Index, 4
 759              	GPS_UART_RX_Rd_Index:
 760 000c 00000000 		.space	4
 761              		.text
 762              	.Letext0:
 763              		.file 2 "c:\\program files (x86)\\cypress\\psoc creator\\4.4\\psoc creator\\import\\gnu\\arm\\5.4.
 764              		.file 3 "c:\\program files (x86)\\cypress\\psoc creator\\4.4\\psoc creator\\import\\gnu\\arm\\5.4.
 765              		.file 4 "Generated_Source\\PSoC5/core_cm3.h"
 766              		.file 5 "Generated_Source\\PSoC5/GPS.h"
 767              		.file 6 "c:\\program files (x86)\\cypress\\psoc creator\\4.4\\psoc creator\\import\\gnu\\arm\\5.4.
 768              		.file 7 "c:\\program files (x86)\\cypress\\psoc creator\\4.4\\psoc creator\\import\\gnu\\arm\\5.4.
 769              		.file 8 "Generated_Source\\PSoC5/UART.h"
 770              		.file 9 "Generated_Source\\PSoC5/PW_GPS.h"
 771              		.file 10 "Generated_Source\\PSoC5/CyLib.h"