ARM GAS  C:\Users\MARKHU~1\AppData\Local\Temp\ccE5jXRZ.s 			page 1


   1              		.syntax unified
   2              		.cpu cortex-m3
   3              		.fpu softvfp
   4              		.eabi_attribute 20, 1
   5              		.eabi_attribute 21, 1
   6              		.eabi_attribute 23, 3
   7              		.eabi_attribute 24, 1
   8              		.eabi_attribute 25, 1
   9              		.eabi_attribute 26, 1
  10              		.eabi_attribute 30, 1
  11              		.eabi_attribute 34, 1
  12              		.eabi_attribute 18, 4
  13              		.thumb
  14              		.syntax unified
  15              		.file	"main.c"
  16              		.text
  17              	.Ltext0:
  18              		.cfi_sections	.debug_frame
  19              		.section	.text.parse_gnrmc_message,"ax",%progbits
  20              		.align	2
  21              		.global	parse_gnrmc_message
  22              		.thumb
  23              		.thumb_func
  24              		.type	parse_gnrmc_message, %function
  25              	parse_gnrmc_message:
  26              	.LFB64:
  27              		.file 1 "main.c"
   1:main.c        **** /* ========================================
   2:main.c        ****  *
   3:main.c        ****  * Copyright YOUR COMPANY, THE YEAR
   4:main.c        ****  * All Rights Reserved
   5:main.c        ****  * UNPUBLISHED, LICENSED SOFTWARE.
   6:main.c        ****  *
   7:main.c        ****  * CONFIDENTIAL AND PROPRIETARY INFORMATION
   8:main.c        ****  * WHICH IS THE PROPERTY OF your company.
   9:main.c        ****  *
  10:main.c        ****  * ========================================
  11:main.c        **** */
  12:main.c        **** #include "project.h"
  13:main.c        **** #include <string.h>
  14:main.c        **** #include <stdio.h>
  15:main.c        **** #include <stdlib.h>
  16:main.c        **** 
  17:main.c        **** #include <stdio.h>
  18:main.c        **** #include <stdlib.h>
  19:main.c        **** #include <string.h>
  20:main.c        **** 
  21:main.c        **** #define UART1_BUFFER_SIZE 128
  22:main.c        **** #define UART2_BUFFER_SIZE 128
  23:main.c        **** #define MESSAGE_INTERVAL_MS 1000
  24:main.c        **** 
  25:main.c        **** // Global variables to store the GPS data
  26:main.c        **** char utc_time[10];
  27:main.c        **** char latitude[11];
  28:main.c        **** char longitude[12];
  29:main.c        **** char speed_over_ground[6];
  30:main.c        **** char date[7];
ARM GAS  C:\Users\MARKHU~1\AppData\Local\Temp\ccE5jXRZ.s 			page 2


  31:main.c        **** 
  32:main.c        **** char uart1_rx_buffer[UART1_BUFFER_SIZE];
  33:main.c        **** uint32_t uart1_rx_buffer_pos = 0;
  34:main.c        **** char uart2_tx_buffer[UART2_BUFFER_SIZE];
  35:main.c        **** 
  36:main.c        **** void parse_gnrmc_message(char* message)
  37:main.c        **** {
  28              		.loc 1 37 0
  29              		.cfi_startproc
  30              		@ args = 0, pretend = 0, frame = 0
  31              		@ frame_needed = 0, uses_anonymous_args = 0
  32              	.LVL0:
  33 0000 10B5     		push	{r4, lr}
  34              		.cfi_def_cfa_offset 8
  35              		.cfi_offset 4, -8
  36              		.cfi_offset 14, -4
  37              	.LVL1:
  38:main.c        ****     // Split the message into individual fields
  39:main.c        ****     char* field;
  40:main.c        ****     int field_count = 0;
  41:main.c        ****     field = strtok(message, ",");
  38              		.loc 1 41 0
  39 0002 1A49     		ldr	r1, .L10
  40 0004 FFF7FEFF 		bl	strtok
  41              	.LVL2:
  40:main.c        ****     field = strtok(message, ",");
  42              		.loc 1 40 0
  43 0008 0024     		movs	r4, #0
  42:main.c        ****     while (field != NULL)
  44              		.loc 1 42 0
  45 000a 2BE0     		b	.L2
  46              	.LVL3:
  47              	.L8:
  43:main.c        ****     {
  44:main.c        ****         if (field_count == 1)
  48              		.loc 1 44 0
  49 000c 012C     		cmp	r4, #1
  50 000e 05D1     		bne	.L3
  45:main.c        ****         {
  46:main.c        ****             // Extract the UTC time
  47:main.c        ****             strncpy(utc_time, field, 10);
  51              		.loc 1 47 0
  52 0010 0A22     		movs	r2, #10
  53 0012 0146     		mov	r1, r0
  54 0014 1648     		ldr	r0, .L10+4
  55              	.LVL4:
  56 0016 FFF7FEFF 		bl	strncpy
  57              	.LVL5:
  58 001a 1EE0     		b	.L4
  59              	.LVL6:
  60              	.L3:
  48:main.c        ****         }
  49:main.c        ****         else if (field_count == 3)
  61              		.loc 1 49 0
  62 001c 032C     		cmp	r4, #3
  63 001e 05D1     		bne	.L5
  50:main.c        ****         {
ARM GAS  C:\Users\MARKHU~1\AppData\Local\Temp\ccE5jXRZ.s 			page 3


  51:main.c        ****             // Extract the latitude
  52:main.c        ****             strncpy(latitude, field, 11);
  64              		.loc 1 52 0
  65 0020 0B22     		movs	r2, #11
  66 0022 0146     		mov	r1, r0
  67 0024 1348     		ldr	r0, .L10+8
  68              	.LVL7:
  69 0026 FFF7FEFF 		bl	strncpy
  70              	.LVL8:
  71 002a 16E0     		b	.L4
  72              	.LVL9:
  73              	.L5:
  53:main.c        ****         }
  54:main.c        ****         else if (field_count == 5)
  74              		.loc 1 54 0
  75 002c 052C     		cmp	r4, #5
  76 002e 05D1     		bne	.L6
  55:main.c        ****         {
  56:main.c        ****             // Extract the longitude
  57:main.c        ****             strncpy(longitude, field, 12);
  77              		.loc 1 57 0
  78 0030 0C22     		movs	r2, #12
  79 0032 0146     		mov	r1, r0
  80 0034 1048     		ldr	r0, .L10+12
  81              	.LVL10:
  82 0036 FFF7FEFF 		bl	strncpy
  83              	.LVL11:
  84 003a 0EE0     		b	.L4
  85              	.LVL12:
  86              	.L6:
  58:main.c        ****         }
  59:main.c        ****         else if (field_count == 7)
  87              		.loc 1 59 0
  88 003c 072C     		cmp	r4, #7
  89 003e 05D1     		bne	.L7
  60:main.c        ****         {
  61:main.c        ****             // Extract the speed over ground
  62:main.c        ****             strncpy(speed_over_ground, field, 6);
  90              		.loc 1 62 0
  91 0040 0622     		movs	r2, #6
  92 0042 0146     		mov	r1, r0
  93 0044 0D48     		ldr	r0, .L10+16
  94              	.LVL13:
  95 0046 FFF7FEFF 		bl	strncpy
  96              	.LVL14:
  97 004a 06E0     		b	.L4
  98              	.LVL15:
  99              	.L7:
  63:main.c        ****         }
  64:main.c        ****         else if (field_count == 9)
 100              		.loc 1 64 0
 101 004c 092C     		cmp	r4, #9
 102 004e 04D1     		bne	.L4
  65:main.c        ****         {
  66:main.c        ****             // Extract the date
  67:main.c        ****             strncpy(date, field, 7);
 103              		.loc 1 67 0
ARM GAS  C:\Users\MARKHU~1\AppData\Local\Temp\ccE5jXRZ.s 			page 4


 104 0050 0722     		movs	r2, #7
 105 0052 0146     		mov	r1, r0
 106 0054 0A48     		ldr	r0, .L10+20
 107              	.LVL16:
 108 0056 FFF7FEFF 		bl	strncpy
 109              	.LVL17:
 110              	.L4:
  68:main.c        ****         }
  69:main.c        ****         
  70:main.c        ****         field = strtok(NULL, ",");
 111              		.loc 1 70 0
 112 005a 0449     		ldr	r1, .L10
 113 005c 0020     		movs	r0, #0
 114 005e FFF7FEFF 		bl	strtok
 115              	.LVL18:
  71:main.c        ****         field_count++;
 116              		.loc 1 71 0
 117 0062 0134     		adds	r4, r4, #1
 118              	.LVL19:
 119              	.L2:
  42:main.c        ****     {
 120              		.loc 1 42 0
 121 0064 0028     		cmp	r0, #0
 122 0066 D1D1     		bne	.L8
  72:main.c        ****     }
  73:main.c        **** }
 123              		.loc 1 73 0
 124 0068 10BD     		pop	{r4, pc}
 125              	.LVL20:
 126              	.L11:
 127 006a 00BF     		.align	2
 128              	.L10:
 129 006c 00000000 		.word	.LC0
 130 0070 00000000 		.word	utc_time
 131 0074 00000000 		.word	latitude
 132 0078 00000000 		.word	longitude
 133 007c 00000000 		.word	speed_over_ground
 134 0080 00000000 		.word	date
 135              		.cfi_endproc
 136              	.LFE64:
 137              		.size	parse_gnrmc_message, .-parse_gnrmc_message
 138              		.section	.text.uart1_rx_isr,"ax",%progbits
 139              		.align	2
 140              		.global	uart1_rx_isr
 141              		.thumb
 142              		.thumb_func
 143              		.type	uart1_rx_isr, %function
 144              	uart1_rx_isr:
 145              	.LFB65:
  74:main.c        **** 
  75:main.c        **** CY_ISR(uart1_rx_isr)
  76:main.c        **** {
 146              		.loc 1 76 0
 147              		.cfi_startproc
 148              		@ args = 0, pretend = 0, frame = 0
 149              		@ frame_needed = 0, uses_anonymous_args = 0
 150 0000 08B5     		push	{r3, lr}
ARM GAS  C:\Users\MARKHU~1\AppData\Local\Temp\ccE5jXRZ.s 			page 5


 151              		.cfi_def_cfa_offset 8
 152              		.cfi_offset 3, -8
 153              		.cfi_offset 14, -4
  77:main.c        ****     if (UART1_GetRxBufferSize() > 0)
 154              		.loc 1 77 0
 155 0002 FFF7FEFF 		bl	UART1_GetRxBufferSize
 156              	.LVL21:
 157 0006 E8B1     		cbz	r0, .L12
 158              	.LBB2:
  78:main.c        ****         {
  79:main.c        ****             char rx_byte = UART1_GetChar();
 159              		.loc 1 79 0
 160 0008 FFF7FEFF 		bl	UART1_GetChar
 161              	.LVL22:
  80:main.c        ****             //UART_PutChar(rx_byte);
  81:main.c        ****             // Check if we have received a complete message
  82:main.c        ****             if (rx_byte == '\n' || uart1_rx_buffer_pos == UART1_BUFFER_SIZE - 1)
 162              		.loc 1 82 0
 163 000c 0A28     		cmp	r0, #10
 164 000e 03D0     		beq	.L14
 165              		.loc 1 82 0 is_stmt 0 discriminator 1
 166 0010 0D4B     		ldr	r3, .L18
 167 0012 1B68     		ldr	r3, [r3]
 168 0014 7F2B     		cmp	r3, #127
 169 0016 10D1     		bne	.L15
 170              	.L14:
  83:main.c        ****             {
  84:main.c        ****                 uart1_rx_buffer[uart1_rx_buffer_pos] = '\0';
 171              		.loc 1 84 0 is_stmt 1
 172 0018 0B4B     		ldr	r3, .L18
 173 001a 1B68     		ldr	r3, [r3]
 174 001c 0B48     		ldr	r0, .L18+4
 175              	.LVL23:
 176 001e 0022     		movs	r2, #0
 177 0020 C254     		strb	r2, [r0, r3]
  85:main.c        ****                 
  86:main.c        ****                 // Check if the message is a GNRMC message
  87:main.c        ****                 if (strncmp(uart1_rx_buffer, "$GNRMC", 6) == 0)
 178              		.loc 1 87 0
 179 0022 0622     		movs	r2, #6
 180 0024 0A49     		ldr	r1, .L18+8
 181 0026 FFF7FEFF 		bl	strncmp
 182              	.LVL24:
 183 002a 10B9     		cbnz	r0, .L16
  88:main.c        ****                 {
  89:main.c        ****                     // Parse the message and extract the required data
  90:main.c        ****                     parse_gnrmc_message(uart1_rx_buffer);
 184              		.loc 1 90 0
 185 002c 0748     		ldr	r0, .L18+4
 186 002e FFF7FEFF 		bl	parse_gnrmc_message
 187              	.LVL25:
 188              	.L16:
  91:main.c        ****                     
  92:main.c        ****                     // Transmit the data over UART2
  93:main.c        ****                     //snprintf(uart2_tx_buffer, UART2_BUFFER_SIZE, "Time: %s, Lat: %s, Long: %s, Sp
  94:main.c        ****                              //utc_time, latitude, longitude, speed_over_ground, date);
  95:main.c        ****                    //UART_PutString(uart2_tx_buffer);
ARM GAS  C:\Users\MARKHU~1\AppData\Local\Temp\ccE5jXRZ.s 			page 6


  96:main.c        ****                     //UART_PutString(latitude);
  97:main.c        ****                     //UART_PutString("\r\n");
  98:main.c        ****                     //UART_PutString(longitude);
  99:main.c        ****                     //UART_PutString("\r\n");
 100:main.c        ****                     //snprintf(uart2_tx_buffer, UART2_BUFFER_SIZE, "Latitude: %s, Longtitude: %s ,T
 101:main.c        ****                     //UART2_PutString(uart2_tx_buffer);
 102:main.c        ****                 }
 103:main.c        ****                 
 104:main.c        ****                 uart1_rx_buffer_pos = 0;
 189              		.loc 1 104 0
 190 0032 0022     		movs	r2, #0
 191 0034 044B     		ldr	r3, .L18
 192 0036 1A60     		str	r2, [r3]
 193 0038 08BD     		pop	{r3, pc}
 194              	.LVL26:
 195              	.L15:
 105:main.c        ****             }
 106:main.c        ****             else
 107:main.c        ****             {
 108:main.c        ****                 uart1_rx_buffer[uart1_rx_buffer_pos] = rx_byte;
 196              		.loc 1 108 0
 197 003a 044A     		ldr	r2, .L18+4
 198 003c D054     		strb	r0, [r2, r3]
 109:main.c        ****                 uart1_rx_buffer_pos++;
 199              		.loc 1 109 0
 200 003e 0133     		adds	r3, r3, #1
 201 0040 014A     		ldr	r2, .L18
 202 0042 1360     		str	r3, [r2]
 203              	.LVL27:
 204              	.L12:
 205 0044 08BD     		pop	{r3, pc}
 206              	.L19:
 207 0046 00BF     		.align	2
 208              	.L18:
 209 0048 00000000 		.word	.LANCHOR0
 210 004c 00000000 		.word	uart1_rx_buffer
 211 0050 04000000 		.word	.LC1
 212              	.LBE2:
 213              		.cfi_endproc
 214              	.LFE65:
 215              		.size	uart1_rx_isr, .-uart1_rx_isr
 216              		.section	.text.main,"ax",%progbits
 217              		.align	2
 218              		.global	main
 219              		.thumb
 220              		.thumb_func
 221              		.type	main, %function
 222              	main:
 223              	.LFB66:
 110:main.c        ****             }
 111:main.c        ****         }
 112:main.c        **** }
 113:main.c        **** 
 114:main.c        **** int main(void)
 115:main.c        **** {
 224              		.loc 1 115 0
 225              		.cfi_startproc
ARM GAS  C:\Users\MARKHU~1\AppData\Local\Temp\ccE5jXRZ.s 			page 7


 226              		@ Volatile: function does not return.
 227              		@ args = 0, pretend = 0, frame = 0
 228              		@ frame_needed = 0, uses_anonymous_args = 0
 229 0000 00B5     		push	{lr}
 230              		.cfi_def_cfa_offset 4
 231              		.cfi_offset 14, -4
 232 0002 83B0     		sub	sp, sp, #12
 233              		.cfi_def_cfa_offset 16
 116:main.c        ****     CyGlobalIntEnable; /* Enable global interrupts. */
 234              		.loc 1 116 0
 235              		.syntax unified
 236              	@ 116 "main.c" 1
 237 0004 62B6     		CPSIE   i
 238              	@ 0 "" 2
 117:main.c        ****     
 118:main.c        ****     
 119:main.c        ****     
 120:main.c        ****     PW_GPS_Write(1);
 239              		.loc 1 120 0
 240              		.thumb
 241              		.syntax unified
 242 0006 0120     		movs	r0, #1
 243 0008 FFF7FEFF 		bl	PW_GPS_Write
 244              	.LVL28:
 121:main.c        ****     
 122:main.c        ****     // Initialize UART1 and UART2
 123:main.c        ****     UART1_Start();
 245              		.loc 1 123 0
 246 000c FFF7FEFF 		bl	UART1_Start
 247              	.LVL29:
 124:main.c        ****     UART2_Start();
 248              		.loc 1 124 0
 249 0010 FFF7FEFF 		bl	UART2_Start
 250              	.LVL30:
 125:main.c        ****     
 126:main.c        ****     UART1_RX_ISR_StartEx(uart1_rx_isr);
 251              		.loc 1 126 0
 252 0014 1548     		ldr	r0, .L24
 253 0016 FFF7FEFF 		bl	UART1_RX_ISR_StartEx
 254              	.LVL31:
 127:main.c        ****     
 128:main.c        ****     UART2_PutString("Initializing...\r\n");
 255              		.loc 1 128 0
 256 001a 1548     		ldr	r0, .L24+4
 257 001c FFF7FEFF 		bl	UART2_PutString
 258              	.LVL32:
 129:main.c        ****     UART2_PutString("Getting GPS Data...\r\n");
 259              		.loc 1 129 0
 260 0020 1448     		ldr	r0, .L24+8
 261 0022 FFF7FEFF 		bl	UART2_PutString
 262              	.LVL33:
 130:main.c        ****     //UART1_PutString("$PMTK314,0,1,0,1,0,0,0,0,0,0,0,0,0,0,0,0,0,0,0*28\r\n");
 131:main.c        ****     UART1_PutString("$PMTK314,0,1,0,0,0,0,0,0,0,0,0,0,0,0,0,0,0,0,0*28\r\n");
 263              		.loc 1 131 0
 264 0026 1448     		ldr	r0, .L24+12
 265 0028 FFF7FEFF 		bl	UART1_PutString
 266              	.LVL34:
ARM GAS  C:\Users\MARKHU~1\AppData\Local\Temp\ccE5jXRZ.s 			page 8


 132:main.c        ****     UART2_PutString("GPS data:\r\n");
 267              		.loc 1 132 0
 268 002c 1348     		ldr	r0, .L24+16
 269 002e FFF7FEFF 		bl	UART2_PutString
 270              	.LVL35:
 133:main.c        ****     
 134:main.c        ****     CySysTickStart();
 271              		.loc 1 134 0
 272 0032 FFF7FEFF 		bl	CySysTickStart
 273              	.LVL36:
 274              	.L21:
 135:main.c        ****     
 136:main.c        ****     // Main loop
 137:main.c        ****     while(1)
 138:main.c        ****     {
 139:main.c        ****         if (CySysTickGetValue() % (MESSAGE_INTERVAL_MS * 1000) == 0) {
 275              		.loc 1 139 0
 276 0036 FFF7FEFF 		bl	CySysTickGetValue
 277              	.LVL37:
 278 003a 114B     		ldr	r3, .L24+20
 279 003c A3FB0023 		umull	r2, r3, r3, r0
 280 0040 9B0C     		lsrs	r3, r3, #18
 281 0042 104A     		ldr	r2, .L24+24
 282 0044 02FB1303 		mls	r3, r2, r3, r0
 283 0048 002B     		cmp	r3, #0
 284 004a F4D1     		bne	.L21
 140:main.c        ****             
 141:main.c        ****             snprintf(uart2_tx_buffer, UART2_BUFFER_SIZE, "Latitude: %s, Longtitude: %s ,Time: %s \r
 285              		.loc 1 141 0
 286 004c 0E4C     		ldr	r4, .L24+28
 287 004e 0F4B     		ldr	r3, .L24+32
 288 0050 0193     		str	r3, [sp, #4]
 289 0052 0F4B     		ldr	r3, .L24+36
 290 0054 0093     		str	r3, [sp]
 291 0056 0F4B     		ldr	r3, .L24+40
 292 0058 0F4A     		ldr	r2, .L24+44
 293 005a 8021     		movs	r1, #128
 294 005c 2046     		mov	r0, r4
 295 005e FFF7FEFF 		bl	snprintf
 296              	.LVL38:
 142:main.c        ****             UART2_PutString(uart2_tx_buffer);
 297              		.loc 1 142 0
 298 0062 2046     		mov	r0, r4
 299 0064 FFF7FEFF 		bl	UART2_PutString
 300              	.LVL39:
 301 0068 E5E7     		b	.L21
 302              	.L25:
 303 006a 00BF     		.align	2
 304              	.L24:
 305 006c 00000000 		.word	uart1_rx_isr
 306 0070 0C000000 		.word	.LC2
 307 0074 20000000 		.word	.LC3
 308 0078 38000000 		.word	.LC4
 309 007c 6C000000 		.word	.LC5
 310 0080 83DE1B43 		.word	1125899907
 311 0084 40420F00 		.word	1000000
 312 0088 00000000 		.word	uart2_tx_buffer
ARM GAS  C:\Users\MARKHU~1\AppData\Local\Temp\ccE5jXRZ.s 			page 9


 313 008c 00000000 		.word	utc_time
 314 0090 00000000 		.word	longitude
 315 0094 00000000 		.word	latitude
 316 0098 78000000 		.word	.LC6
 317              		.cfi_endproc
 318              	.LFE66:
 319              		.size	main, .-main
 320              		.comm	uart2_tx_buffer,128,4
 321              		.global	uart1_rx_buffer_pos
 322              		.comm	uart1_rx_buffer,128,4
 323              		.comm	date,7,4
 324              		.comm	speed_over_ground,6,4
 325              		.comm	longitude,12,4
 326              		.comm	latitude,11,4
 327              		.comm	utc_time,10,4
 328              		.section	.rodata.str1.4,"aMS",%progbits,1
 329              		.align	2
 330              	.LC0:
 331 0000 2C00     		.ascii	",\000"
 332 0002 0000     		.space	2
 333              	.LC1:
 334 0004 24474E52 		.ascii	"$GNRMC\000"
 334      4D4300
 335 000b 00       		.space	1
 336              	.LC2:
 337 000c 496E6974 		.ascii	"Initializing...\015\012\000"
 337      69616C69 
 337      7A696E67 
 337      2E2E2E0D 
 337      0A00
 338 001e 0000     		.space	2
 339              	.LC3:
 340 0020 47657474 		.ascii	"Getting GPS Data...\015\012\000"
 340      696E6720 
 340      47505320 
 340      44617461 
 340      2E2E2E0D 
 341 0036 0000     		.space	2
 342              	.LC4:
 343 0038 24504D54 		.ascii	"$PMTK314,0,1,0,0,0,0,0,0,0,0,0,0,0,0,0,0,0,0,0*28\015"
 343      4B333134 
 343      2C302C31 
 343      2C302C30 
 343      2C302C30 
 344 006a 0A00     		.ascii	"\012\000"
 345              	.LC5:
 346 006c 47505320 		.ascii	"GPS data:\015\012\000"
 346      64617461 
 346      3A0D0A00 
 347              	.LC6:
 348 0078 4C617469 		.ascii	"Latitude: %s, Longtitude: %s ,Time: %s \015\012\000"
 348      74756465 
 348      3A202573 
 348      2C204C6F 
 348      6E677469 
 349              		.bss
 350              		.align	2
ARM GAS  C:\Users\MARKHU~1\AppData\Local\Temp\ccE5jXRZ.s 			page 10


 351              		.set	.LANCHOR0,. + 0
 352              		.type	uart1_rx_buffer_pos, %object
 353              		.size	uart1_rx_buffer_pos, 4
 354              	uart1_rx_buffer_pos:
 355 0000 00000000 		.space	4
 356              		.text
 357              	.Letext0:
 358              		.file 2 "c:\\program files (x86)\\cypress\\psoc creator\\4.4\\psoc creator\\import\\gnu\\arm\\5.4.
 359              		.file 3 "c:\\program files (x86)\\cypress\\psoc creator\\4.4\\psoc creator\\import\\gnu\\arm\\5.4.
 360              		.file 4 "Generated_Source\\PSoC5/core_cm3.h"
 361              		.file 5 "c:\\program files (x86)\\cypress\\psoc creator\\4.4\\psoc creator\\import\\gnu\\arm\\5.4.
 362              		.file 6 "Generated_Source\\PSoC5/UART1.h"
 363              		.file 7 "Generated_Source\\PSoC5/PW_GPS.h"
 364              		.file 8 "Generated_Source\\PSoC5/UART2.h"
 365              		.file 9 "Generated_Source\\PSoC5/UART1_RX_ISR.h"
 366              		.file 10 "Generated_Source\\PSoC5/CyLib.h"
 367              		.file 11 "c:\\program files (x86)\\cypress\\psoc creator\\4.4\\psoc creator\\import\\gnu\\arm\\5.4